################################################################################
# findrop.py - pykd module for Gadget Discovery
################################################################################

--------------------------------------------------------------------------------------
00181d52 a6              cmps    byte ptr [esi],byte ptr es:[edi]
00181d53 c3              ret
--------------------------------------------------------------------------------------
00181d51 92              xchg    eax,edx
00181d52 a6              cmps    byte ptr [esi],byte ptr es:[edi]
00181d53 c3              ret
--------------------------------------------------------------------------------------
00181d4f 001b            add     byte ptr [ebx],bl
00181d51 92              xchg    eax,edx
00181d52 a6              cmps    byte ptr [esi],byte ptr es:[edi]
00181d53 c3              ret
--------------------------------------------------------------------------------------
00181d4d 0000            add     byte ptr [eax],al
00181d4f 001b            add     byte ptr [ebx],bl
00181d51 92              xchg    eax,edx
00181d52 a6              cmps    byte ptr [esi],byte ptr es:[edi]
00181d53 c3              ret
--------------------------------------------------------------------------------------
00182386 6250c9          bound   edx,qword ptr [eax-37h]
00182389 c3              ret
--------------------------------------------------------------------------------------
00182385 98              cwde
00182386 6250c9          bound   edx,qword ptr [eax-37h]
00182389 c3              ret
--------------------------------------------------------------------------------------
0018249b c0076a          rol     byte ptr [edi],6Ah
0018249e c294a7          ret     0A794h
--------------------------------------------------------------------------------------
0018249e c294a7          ret     0A794h
--------------------------------------------------------------------------------------
0018249b c0076a          rol     byte ptr [edi],6Ah
0018249e c294a7          ret     0A794h
--------------------------------------------------------------------------------------
001824f0 3bb20f37be10    cmp     esi,dword ptr [edx+10BE370Fh]
001824f6 c3              ret
--------------------------------------------------------------------------------------
001826c4 07              pop     es
001826c5 c3              ret
--------------------------------------------------------------------------------------
001826bf d390815feb07    rcl     dword ptr [eax+7EB5F81h],cl
001826c5 c3              ret
--------------------------------------------------------------------------------------
001826cc d7              xlat    byte ptr [ebx]
001826cd c3              ret
--------------------------------------------------------------------------------------
001826cb d2d7            rcl     bh,cl
001826cd c3              ret
--------------------------------------------------------------------------------------
001826f8 f8              clc
001826f9 c3              ret
--------------------------------------------------------------------------------------
001826f7 ad              lods    dword ptr [esi]
001826f8 f8              clc
001826f9 c3              ret
--------------------------------------------------------------------------------------
001826f6 4a              dec     edx
001826f7 ad              lods    dword ptr [esi]
001826f8 f8              clc
001826f9 c3              ret
--------------------------------------------------------------------------------------
001826f5 d14aad          ror     dword ptr [edx-53h],1
001826f8 f8              clc
001826f9 c3              ret
--------------------------------------------------------------------------------------
001826f4 66d14aad        ror     word ptr [edx-53h],1
001826f8 f8              clc
001826f9 c3              ret
--------------------------------------------------------------------------------------
001826f3 b966d14aad      mov     ecx,0AD4AD166h
001826f8 f8              clc
001826f9 c3              ret
--------------------------------------------------------------------------------------
00182798 06              push    es
00182799 c3              ret
--------------------------------------------------------------------------------------
00182797 d7              xlat    byte ptr [ebx]
00182798 06              push    es
00182799 c3              ret
--------------------------------------------------------------------------------------
00182796 57              push    edi
00182797 d7              xlat    byte ptr [ebx]
00182798 06              push    es
00182799 c3              ret
--------------------------------------------------------------------------------------
00182795 f8              clc
00182796 57              push    edi
00182797 d7              xlat    byte ptr [ebx]
00182798 06              push    es
00182799 c3              ret
--------------------------------------------------------------------------------------
00182794 a9f857d706      test    eax,6D757F8h
00182799 c3              ret
--------------------------------------------------------------------------------------
00182793 a2a9f857d7      mov     byte ptr ds:[D757F8A9h],al
00182798 06              push    es
00182799 c3              ret
--------------------------------------------------------------------------------------
00182792 0fa2            cpuid
00182794 a9f857d706      test    eax,6D757F8h
00182799 c3              ret
--------------------------------------------------------------------------------------
00182a20 5e              pop     esi
00182a21 c3              ret
--------------------------------------------------------------------------------------
00182a1f 655e            pop     esi
00182a21 c3              ret
--------------------------------------------------------------------------------------
00182a5d ab              stos    dword ptr es:[edi]
00182a5e c3              ret
--------------------------------------------------------------------------------------
00182a5b 6272ab          bound   esi,qword ptr [edx-55h]
00182a5e c3              ret
--------------------------------------------------------------------------------------
00182a5a 136272          adc     esp,dword ptr [edx+72h]
00182a5d ab              stos    dword ptr es:[edi]
00182a5e c3              ret
--------------------------------------------------------------------------------------
00182a59 4b              dec     ebx
00182a5a 136272          adc     esp,dword ptr [edx+72h]
00182a5d ab              stos    dword ptr es:[edi]
00182a5e c3              ret
--------------------------------------------------------------------------------------
00182a58 a04b136272      mov     al,byte ptr [PROPSYS!profapi_NULL_THUNK_DATA_DLA <PERF> (PROPSYS+0x11134b) (7262134b)]
00182a5d ab              stos    dword ptr es:[edi]
00182a5e c3              ret
--------------------------------------------------------------------------------------
00182a57 88a04b136272    mov     byte ptr PROPSYS!profapi_NULL_THUNK_DATA_DLA <PERF> (PROPSYS+0x11134b) (7262134b)[eax],ah
00182a5d ab              stos    dword ptr es:[edi]
00182a5e c3              ret
--------------------------------------------------------------------------------------
00182ab5 cb              retf
--------------------------------------------------------------------------------------
00182ab4 83cb73          or      ebx,73h
00182ab7 c2aa99          ret     99AAh
--------------------------------------------------------------------------------------
00182ab3 0483            add     al,83h
00182ab5 cb              retf
--------------------------------------------------------------------------------------
00182bcf f7d6            not     esi
00182bd1 c2c924          ret     24C9h
--------------------------------------------------------------------------------------
00182bce 40              inc     eax
00182bcf f7d6            not     esi
00182bd1 c2c924          ret     24C9h
--------------------------------------------------------------------------------------
00182bcc d8e5            fsub    st,st(5)
00182bce 40              inc     eax
00182bcf f7d6            not     esi
00182bd1 c2c924          ret     24C9h
--------------------------------------------------------------------------------------
00182c6d 55              push    ebp
00182c6e c261dd          ret     0DD61h
--------------------------------------------------------------------------------------
00182c6c 6555            push    ebp
00182c6e c261dd          ret     0DD61h
--------------------------------------------------------------------------------------
00182c6b 4e              dec     esi
00182c6c 6555            push    ebp
00182c6e c261dd          ret     0DD61h
--------------------------------------------------------------------------------------
00182c6a 42              inc     edx
00182c6b 4e              dec     esi
00182c6c 6555            push    ebp
00182c6e c261dd          ret     0DD61h
--------------------------------------------------------------------------------------
00182e44 cab08f          retf    8FB0h
--------------------------------------------------------------------------------------
00182fa0 27              daa
00182fa1 c3              ret
--------------------------------------------------------------------------------------
00182f9f 37              aaa
00182fa0 27              daa
00182fa1 c3              ret
--------------------------------------------------------------------------------------
00182f9e 8e37            mov     st(-2),word ptr [edi]
00182fa0 27              daa
00182fa1 c3              ret
--------------------------------------------------------------------------------------
0018300a c3              ret
--------------------------------------------------------------------------------------
0018300f 052f3d9b9c      add     eax,9C9B3D2Fh
00183014 c3              ret
--------------------------------------------------------------------------------------
0018300e 57              push    edi
0018300f 052f3d9b9c      add     eax,9C9B3D2Fh
00183014 c3              ret
--------------------------------------------------------------------------------------
0018300d 17              pop     ss
0018300e 57              push    edi
0018300f 052f3d9b9c      add     eax,9C9B3D2Fh
00183014 c3              ret
--------------------------------------------------------------------------------------
0018306d 0210            add     dl,byte ptr [eax]
0018306f c2ace1          ret     0E1ACh
--------------------------------------------------------------------------------------
00183074 2b19            sub     ebx,dword ptr [ecx]
00183076 c2e536          ret     36E5h
--------------------------------------------------------------------------------------
0018306f c2ace1          ret     0E1ACh
--------------------------------------------------------------------------------------
001830d1 56              push    esi
001830d2 c2f492          ret     92F4h
--------------------------------------------------------------------------------------
001830ce da5d9c          ficomp  dword ptr [ebp-64h]
001830d1 56              push    esi
001830d2 c2f492          ret     92F4h
--------------------------------------------------------------------------------------
0018326d 8267558a        and     byte ptr [edi+55h],8Ah
00183271 c268ef          ret     0EF68h
--------------------------------------------------------------------------------------
0018326a ca01e8          retf    0E801h
--------------------------------------------------------------------------------------
001832b2 48              dec     eax
001832b3 c2e3f4          ret     0F4E3h
--------------------------------------------------------------------------------------
001832b1 2648            dec     eax
001832b3 c2e3f4          ret     0F4E3h
--------------------------------------------------------------------------------------
001832b0 e126            loope   notepad!`string'+0x14e8 (001832d8)
001832b2 48              dec     eax
001832b3 c2e3f4          ret     0F4E3h
--------------------------------------------------------------------------------------
001832c9 dbd0            fcmovnbe st,st(0)
001832cb c221db          ret     0DB21h
--------------------------------------------------------------------------------------
001832f2 5f              pop     edi
001832f3 c3              ret
--------------------------------------------------------------------------------------
001832ee bf9c733d5f      mov     edi,5F3D739Ch
001832f3 c3              ret
--------------------------------------------------------------------------------------
001832ec 247d            and     al,7Dh
001832ee bf9c733d5f      mov     edi,5F3D739Ch
001832f3 c3              ret
--------------------------------------------------------------------------------------
00183497 f5              cmc
00183498 c3              ret
--------------------------------------------------------------------------------------
00183496 5a              pop     edx
00183497 f5              cmc
00183498 c3              ret
--------------------------------------------------------------------------------------
001834da 228b96c9491c    and     cl,byte ptr [ebx+1C49C996h]
001834e0 c3              ret
--------------------------------------------------------------------------------------
0018359d c21786          ret     8617h
--------------------------------------------------------------------------------------
001835d5 43              inc     ebx
001835d6 c2973f          ret     3F97h
--------------------------------------------------------------------------------------
001835d0 cb              retf
--------------------------------------------------------------------------------------
001835cf 55              push    ebp
001835d0 cb              retf
--------------------------------------------------------------------------------------
001835f7 94              xchg    eax,esp
001835f8 c3              ret
--------------------------------------------------------------------------------------
001835f6 37              aaa
001835f7 94              xchg    eax,esp
001835f8 c3              ret
--------------------------------------------------------------------------------------
001835f1 888b7a390d37    mov     byte ptr [ebx+370D397Ah],cl
001835f7 94              xchg    eax,esp
001835f8 c3              ret
--------------------------------------------------------------------------------------
00183603 4d              dec     ebp
00183604 c3              ret
--------------------------------------------------------------------------------------
00183602 1e              push    ds
00183603 4d              dec     ebp
00183604 c3              ret
--------------------------------------------------------------------------------------
00183601 d31e            rcr     dword ptr [esi],cl
00183603 4d              dec     ebp
00183604 c3              ret
--------------------------------------------------------------------------------------
001836f9 a000f0967e      mov     al,byte ptr ds:[7E96F000h]
001836fe c2ec96          ret     96ECh
--------------------------------------------------------------------------------------
00183703 93              xchg    eax,ebx
00183704 c3              ret
--------------------------------------------------------------------------------------
00183701 22d0            and     dl,al
00183703 93              xchg    eax,ebx
00183704 c3              ret
--------------------------------------------------------------------------------------
00183700 96              xchg    eax,esi
00183701 22d0            and     dl,al
00183703 93              xchg    eax,ebx
00183704 c3              ret
--------------------------------------------------------------------------------------
001836fe c2ec96          ret     96ECh
--------------------------------------------------------------------------------------
0018373d 4e              dec     esi
0018373e c26a21          ret     216Ah
--------------------------------------------------------------------------------------
00183739 b92a0f224e      mov     ecx,4E220F2Ah
0018373e c26a21          ret     216Ah
--------------------------------------------------------------------------------------
001838f9 a186bb5b15      mov     eax,dword ptr ds:[155BBB86h]
001838fe c3              ret
--------------------------------------------------------------------------------------
00183927 65c3            ret
--------------------------------------------------------------------------------------
00183922 cb              retf
--------------------------------------------------------------------------------------
00183928 c3              ret
--------------------------------------------------------------------------------------
00183927 65c3            ret
--------------------------------------------------------------------------------------
00183968 a0592d6830      mov     al,byte ptr ds:[30682D59h]
0018396d c3              ret
--------------------------------------------------------------------------------------
00183966 34d5            xor     al,0D5h
00183968 a0592d6830      mov     al,byte ptr ds:[30682D59h]
0018396d c3              ret
--------------------------------------------------------------------------------------
00183a13 91              xchg    eax,ecx
00183a14 c2a016          ret     16A0h
--------------------------------------------------------------------------------------
00183a12 b291            mov     dl,91h
00183a14 c2a016          ret     16A0h
--------------------------------------------------------------------------------------
00183b4e f2c2201e        bnd ret 1E20h
--------------------------------------------------------------------------------------
00183b4d aa              stos    byte ptr es:[edi]
00183b4e f2c2201e        bnd ret 1E20h
--------------------------------------------------------------------------------------
00183bdc 44              inc     esp
00183bdd c3              ret
--------------------------------------------------------------------------------------
00183bdb 97              xchg    eax,edi
00183bdc 44              inc     esp
00183bdd c3              ret
--------------------------------------------------------------------------------------
00183bda f8              clc
00183bdb 97              xchg    eax,edi
00183bdc 44              inc     esp
00183bdd c3              ret
--------------------------------------------------------------------------------------
00183bd9 86f8            xchg    bh,al
00183bdb 97              xchg    eax,edi
00183bdc 44              inc     esp
00183bdd c3              ret
--------------------------------------------------------------------------------------
00183bd8 fb              sti
00183bd9 86f8            xchg    bh,al
00183bdb 97              xchg    eax,edi
00183bdc 44              inc     esp
00183bdd c3              ret
--------------------------------------------------------------------------------------
00183bd7 19fb            sbb     ebx,edi
00183bd9 86f8            xchg    bh,al
00183bdb 97              xchg    eax,edi
00183bdc 44              inc     esp
00183bdd c3              ret
--------------------------------------------------------------------------------------
00183bd6 4a              dec     edx
00183bd7 19fb            sbb     ebx,edi
00183bd9 86f8            xchg    bh,al
00183bdb 97              xchg    eax,edi
00183bdc 44              inc     esp
00183bdd c3              ret
--------------------------------------------------------------------------------------
00183d0c 1c02            sbb     al,2
00183d0e c3              ret
--------------------------------------------------------------------------------------
00183db2 95              xchg    eax,ebp
00183db3 c2ce3c          ret     3CCEh
--------------------------------------------------------------------------------------
00183ddf 8be0            mov     esp,eax
00183de1 c2e688          ret     88E6h
--------------------------------------------------------------------------------------
00183dfe 1e              push    ds
00183dff c23860          ret     6038h
--------------------------------------------------------------------------------------
00183dfd 4d              dec     ebp
00183dfe 1e              push    ds
00183dff c23860          ret     6038h
--------------------------------------------------------------------------------------
00183dfc d84d1e          fmul    dword ptr [ebp+1Eh]
00183dff c23860          ret     6038h
--------------------------------------------------------------------------------------
00183dfb dfd8            fstp9   st(0)
00183dfd 4d              dec     ebp
00183dfe 1e              push    ds
00183dff c23860          ret     6038h
--------------------------------------------------------------------------------------
00183dfa 36dfd8          fstp9   st(0)
00183dfd 4d              dec     ebp
00183dfe 1e              push    ds
00183dff c23860          ret     6038h
--------------------------------------------------------------------------------------
00183e6c 55              push    ebp
00183e6d c3              ret
--------------------------------------------------------------------------------------
00183f0b d7              xlat    byte ptr [ebx]
00183f0c c3              ret
--------------------------------------------------------------------------------------
00183f0a 95              xchg    eax,ebp
00183f0b d7              xlat    byte ptr [ebx]
00183f0c c3              ret
--------------------------------------------------------------------------------------
00183f09 2695            xchg    eax,ebp
00183f0b d7              xlat    byte ptr [ebx]
00183f0c c3              ret
--------------------------------------------------------------------------------------
00183f06 2d63812695      sub     eax,95268163h
00183f0b d7              xlat    byte ptr [ebx]
00183f0c c3              ret
--------------------------------------------------------------------------------------
00183f05 8c2d63812695    mov     word ptr ds:[95268163h],gs
00183f0b d7              xlat    byte ptr [ebx]
00183f0c c3              ret
--------------------------------------------------------------------------------------
00183fd8 49              dec     ecx
00183fd9 c3              ret
--------------------------------------------------------------------------------------
00184018 1961c4          sbb     dword ptr [ecx-3Ch],esp
0018401b c3              ret
--------------------------------------------------------------------------------------
00184016 baf71961c4      mov     edx,0C46119F7h
0018401b c3              ret
--------------------------------------------------------------------------------------
0018404d 5d              pop     ebp
0018404e c26747          ret     4767h
--------------------------------------------------------------------------------------
0018404b 18c5            sbb     ch,al
0018404d 5d              pop     ebp
0018404e c26747          ret     4767h
--------------------------------------------------------------------------------------
0018404a 3618c5          sbb     ch,al
0018404d 5d              pop     ebp
0018404e c26747          ret     4767h
--------------------------------------------------------------------------------------
0018417a 40              inc     eax
0018417b c26da7          ret     0A76Dh
--------------------------------------------------------------------------------------
00184177 c54e31          lds     ecx,fword ptr [esi+31h]
0018417a 40              inc     eax
0018417b c26da7          ret     0A76Dh
--------------------------------------------------------------------------------------
00184176 f3c54e31        rep lds ecx,fword ptr [esi+31h]
0018417a 40              inc     eax
0018417b c26da7          ret     0A76Dh
--------------------------------------------------------------------------------------
0018455c 61              popad
0018455d c3              ret
--------------------------------------------------------------------------------------
0018455b e261            loop    notepad!PKEY_Security_EncryptionOwners+0xe (001845be)
0018455d c3              ret
--------------------------------------------------------------------------------------
00184558 bc55a1e261      mov     esp,61E2A155h
0018455d c3              ret
--------------------------------------------------------------------------------------
00184557 42              inc     edx
00184558 bc55a1e261      mov     esp,61E2A155h
0018455d c3              ret
--------------------------------------------------------------------------------------
001845d5 a4              movs    byte ptr es:[edi],byte ptr [esi]
001845d6 c22b00          ret     2Bh
--------------------------------------------------------------------------------------
001845f1 a4              movs    byte ptr es:[edi],byte ptr [esi]
001845f2 c22b00          ret     2Bh
--------------------------------------------------------------------------------------
0018460d a4              movs    byte ptr es:[edi],byte ptr [esi]
0018460e c22b00          ret     2Bh
--------------------------------------------------------------------------------------
00184be6 0000            add     byte ptr [eax],al
00184be8 c24e00          ret     4Eh
--------------------------------------------------------------------------------------
00184d36 02663b          add     ah,byte ptr [esi+3Bh]
00184d39 c3              ret
--------------------------------------------------------------------------------------
00184d54 5b              pop     ebx
00184d55 c3              ret
--------------------------------------------------------------------------------------
00184d51 894108          mov     dword ptr [ecx+8],eax
00184d54 5b              pop     ebx
00184d55 c3              ret
--------------------------------------------------------------------------------------
00184d4e 89590c          mov     dword ptr [ecx+0Ch],ebx
00184d51 894108          mov     dword ptr [ecx+8],eax
00184d54 5b              pop     ebx
00184d55 c3              ret
--------------------------------------------------------------------------------------
00184de0 5d              pop     ebp
00184de1 c21000          ret     10h
--------------------------------------------------------------------------------------
00184dde 8be5            mov     esp,ebp
00184de0 5d              pop     ebp
00184de1 c21000          ret     10h
--------------------------------------------------------------------------------------
00184ddd 5e              pop     esi
00184dde 8be5            mov     esp,ebp
00184de0 5d              pop     ebp
00184de1 c21000          ret     10h
--------------------------------------------------------------------------------------
00184e26 5d              pop     ebp
00184e27 c20800          ret     8
--------------------------------------------------------------------------------------
00184e24 33c0            xor     eax,eax
00184e26 5d              pop     ebp
00184e27 c20800          ret     8
--------------------------------------------------------------------------------------
00184ebe 5d              pop     ebp
00184ebf c22400          ret     24h
--------------------------------------------------------------------------------------
00184ebc 8be5            mov     esp,ebp
00184ebe 5d              pop     ebp
00184ebf c22400          ret     24h
--------------------------------------------------------------------------------------
00184eba 0100            add     dword ptr [eax],eax
00184ebc 8be5            mov     esp,ebp
00184ebe 5d              pop     ebp
00184ebf c22400          ret     24h
--------------------------------------------------------------------------------------
00184eec 1900            sbb     dword ptr [eax],eax
00184eee c3              ret
--------------------------------------------------------------------------------------
00184efa 59              pop     ecx
00184efb c3              ret
--------------------------------------------------------------------------------------
00184ef8 0100            add     dword ptr [eax],eax
00184efa 59              pop     ecx
00184efb c3              ret
--------------------------------------------------------------------------------------
00184ef7 6b0100          imul    eax,dword ptr [ecx],0
00184efa 59              pop     ecx
00184efb c3              ret
--------------------------------------------------------------------------------------
00184ef6 54              push    esp
00184ef7 6b0100          imul    eax,dword ptr [ecx],0
00184efa 59              pop     ecx
00184efb c3              ret
--------------------------------------------------------------------------------------
00184ef4 00e8            add     al,ch
00184ef6 54              push    esp
00184ef7 6b0100          imul    eax,dword ptr [ecx],0
00184efa 59              pop     ecx
00184efb c3              ret
--------------------------------------------------------------------------------------
00184f0a 59              pop     ecx
00184f0b c3              ret
--------------------------------------------------------------------------------------
00184f08 0100            add     dword ptr [eax],eax
00184f0a 59              pop     ecx
00184f0b c3              ret
--------------------------------------------------------------------------------------
00184f07 6b0100          imul    eax,dword ptr [ecx],0
00184f0a 59              pop     ecx
00184f0b c3              ret
--------------------------------------------------------------------------------------
00184f06 44              inc     esp
00184f07 6b0100          imul    eax,dword ptr [ecx],0
00184f0a 59              pop     ecx
00184f0b c3              ret
--------------------------------------------------------------------------------------
00184f04 00e8            add     al,ch
00184f06 44              inc     esp
00184f07 6b0100          imul    eax,dword ptr [ecx],0
00184f0a 59              pop     ecx
00184f0b c3              ret
--------------------------------------------------------------------------------------
00184f2c 1900            sbb     dword ptr [eax],eax
00184f2e c3              ret
--------------------------------------------------------------------------------------
00184f2a 3ce5            cmp     al,0E5h
00184f2c 1900            sbb     dword ptr [eax],eax
00184f2e c3              ret
--------------------------------------------------------------------------------------
00184f28 1900            sbb     dword ptr [eax],eax
00184f2a 3ce5            cmp     al,0E5h
00184f2c 1900            sbb     dword ptr [eax],eax
00184f2e c3              ret
--------------------------------------------------------------------------------------
00184fa3 5d              pop     ebp
00184fa4 c20c00          ret     0Ch
--------------------------------------------------------------------------------------
00184fa2 5e              pop     esi
00184fa3 5d              pop     ebp
00184fa4 c20c00          ret     0Ch
--------------------------------------------------------------------------------------
00184fc1 5d              pop     ebp
00184fc2 c20400          ret     4
--------------------------------------------------------------------------------------
00184fc0 40              inc     eax
00184fc1 5d              pop     ebp
00184fc2 c20400          ret     4
--------------------------------------------------------------------------------------
00184fbf 08405d          or      byte ptr [eax+5Dh],al
00184fc2 c20400          ret     4
--------------------------------------------------------------------------------------
00184fbe 41              inc     ecx
00184fbf 08405d          or      byte ptr [eax+5Dh],al
00184fc2 c20400          ret     4
--------------------------------------------------------------------------------------
00184fbd c1410840        rol     dword ptr [ecx+8],40h
00184fc1 5d              pop     ebp
00184fc2 c20400          ret     4
--------------------------------------------------------------------------------------
00184fee 5d              pop     ebp
00184fef c20400          ret     4
--------------------------------------------------------------------------------------
00184fed 5e              pop     esi
00184fee 5d              pop     ebp
00184fef c20400          ret     4
--------------------------------------------------------------------------------------
00184feb 8bc6            mov     eax,esi
00184fed 5e              pop     esi
00184fee 5d              pop     ebp
00184fef c20400          ret     4
--------------------------------------------------------------------------------------
00185000 33c0            xor     eax,eax
00185002 c20800          ret     8
--------------------------------------------------------------------------------------
00185010 b801400080      mov     eax,80004001h
00185015 c20c00          ret     0Ch
--------------------------------------------------------------------------------------
00185020 b801400080      mov     eax,80004001h
00185025 c20800          ret     8
--------------------------------------------------------------------------------------
0018515f 5d              pop     ebp
00185160 c3              ret
--------------------------------------------------------------------------------------
0018515d 8be5            mov     esp,ebp
0018515f 5d              pop     ebp
00185160 c3              ret
--------------------------------------------------------------------------------------
0018515b 0100            add     dword ptr [eax],eax
0018515d 8be5            mov     esp,ebp
0018515f 5d              pop     ebp
00185160 c3              ret
--------------------------------------------------------------------------------------
0018515a 660100          add     word ptr [eax],ax
0018515d 8be5            mov     esp,ebp
0018515f 5d              pop     ebp
00185160 c3              ret
--------------------------------------------------------------------------------------
001851fd 5d              pop     ebp
001851fe c20800          ret     8
--------------------------------------------------------------------------------------
001851fb 8be5            mov     esp,ebp
001851fd 5d              pop     ebp
001851fe c20800          ret     8
--------------------------------------------------------------------------------------
001851f9 0100            add     dword ptr [eax],eax
001851fb 8be5            mov     esp,ebp
001851fd 5d              pop     ebp
001851fe c20800          ret     8
--------------------------------------------------------------------------------------
00185210 b801400080      mov     eax,80004001h
00185215 c21000          ret     10h
--------------------------------------------------------------------------------------
00185237 5d              pop     ebp
00185238 c20c00          ret     0Ch
--------------------------------------------------------------------------------------
00185251 5d              pop     ebp
00185252 c20400          ret     4
--------------------------------------------------------------------------------------
00185250 40              inc     eax
00185251 5d              pop     ebp
00185252 c20400          ret     4
--------------------------------------------------------------------------------------
0018524f 0440            add     al,40h
00185251 5d              pop     ebp
00185252 c20400          ret     4
--------------------------------------------------------------------------------------
0018524e 41              inc     ecx
0018524f 0440            add     al,40h
00185251 5d              pop     ebp
00185252 c20400          ret     4
--------------------------------------------------------------------------------------
0018524d c1410440        rol     dword ptr [ecx+4],40h
00185251 5d              pop     ebp
00185252 c20400          ret     4
--------------------------------------------------------------------------------------
00185271 5d              pop     ebp
00185272 c20400          ret     4
--------------------------------------------------------------------------------------
00185295 5d              pop     ebp
00185296 c21000          ret     10h
--------------------------------------------------------------------------------------
00185293 33c0            xor     eax,eax
00185295 5d              pop     ebp
00185296 c21000          ret     10h
--------------------------------------------------------------------------------------
00185291 1900            sbb     dword ptr [eax],eax
00185293 33c0            xor     eax,eax
00185295 5d              pop     ebp
00185296 c21000          ret     10h
--------------------------------------------------------------------------------------
001852e1 5b              pop     ebx
001852e2 c3              ret
--------------------------------------------------------------------------------------
001852e0 5e              pop     esi
001852e1 5b              pop     ebx
001852e2 c3              ret
--------------------------------------------------------------------------------------
001852df 5f              pop     edi
001852e0 5e              pop     esi
001852e1 5b              pop     ebx
001852e2 c3              ret
--------------------------------------------------------------------------------------
001852dd 8bc7            mov     eax,edi
001852df 5f              pop     edi
001852e0 5e              pop     esi
001852e1 5b              pop     ebx
001852e2 c3              ret
--------------------------------------------------------------------------------------
001852dc ff8bc75f5e5b    dec     dword ptr [ebx+5B5E5FC7h]
001852e2 c3              ret
--------------------------------------------------------------------------------------
0018534b 5d              pop     ebp
0018534c c20400          ret     4
--------------------------------------------------------------------------------------
0018534a 5e              pop     esi
0018534b 5d              pop     ebp
0018534c c20400          ret     4
--------------------------------------------------------------------------------------
00185348 8bc6            mov     eax,esi
0018534a 5e              pop     esi
0018534b 5d              pop     ebp
0018534c c20400          ret     4
--------------------------------------------------------------------------------------
00185359 b8c7040780      mov     eax,800704C7h
0018535e c3              ret
--------------------------------------------------------------------------------------
00185358 06              push    es
00185359 b8c7040780      mov     eax,800704C7h
0018535e c3              ret
--------------------------------------------------------------------------------------
00185364 b805400080      mov     eax,80004005h
00185369 c3              ret
--------------------------------------------------------------------------------------
00185363 00b805400080    add     byte ptr [eax-7FFFBFFBh],bh
00185369 c3              ret
--------------------------------------------------------------------------------------
00185362 0000            add     byte ptr [eax],al
00185364 b805400080      mov     eax,80004005h
00185369 c3              ret
--------------------------------------------------------------------------------------
00185396 0000            add     byte ptr [eax],al
00185398 c3              ret
--------------------------------------------------------------------------------------
00185394 f619            neg     byte ptr [ecx]
00185396 0000            add     byte ptr [eax],al
00185398 c3              ret
--------------------------------------------------------------------------------------
00185393 4c              dec     esp
00185394 f619            neg     byte ptr [ecx]
00185396 0000            add     byte ptr [eax],al
00185398 c3              ret
--------------------------------------------------------------------------------------
00185391 83254cf6190000  and     dword ptr [notepad!g_PageSetupDlg+0xc (0019f64c)],0
00185398 c3              ret
--------------------------------------------------------------------------------------
001853a9 000b            add     byte ptr [ebx],cl
001853ab c27415          ret     1574h
--------------------------------------------------------------------------------------
001853a7 e119            loope   notepad!UnregisterForEnterpriseIdRevoked+0x29 (001853c2)
001853a9 000b            add     byte ptr [ebx],cl
001853ab c27415          ret     1574h
--------------------------------------------------------------------------------------
001853c3 59              pop     ecx
001853c4 c3              ret
--------------------------------------------------------------------------------------
001853c1 0000            add     byte ptr [eax],al
001853c3 59              pop     ecx
001853c4 c3              ret
--------------------------------------------------------------------------------------
001853bf e119            loope   notepad!SetPageSetupDefaults+0x15 (001853da)
001853c1 0000            add     byte ptr [eax],al
001853c3 59              pop     ecx
001853c4 c3              ret
--------------------------------------------------------------------------------------
00185443 5d              pop     ebp
00185444 c3              ret
--------------------------------------------------------------------------------------
00185441 8be5            mov     esp,ebp
00185443 5d              pop     ebp
00185444 c3              ret
--------------------------------------------------------------------------------------
0018543f 1900            sbb     dword ptr [eax],eax
00185441 8be5            mov     esp,ebp
00185443 5d              pop     ebp
00185444 c3              ret
--------------------------------------------------------------------------------------
00185472 0303            add     eax,dword ptr [ebx]
00185474 c2c1f8          ret     0F8C1h
--------------------------------------------------------------------------------------
001854e7 5d              pop     ebp
001854e8 c3              ret
--------------------------------------------------------------------------------------
001854e5 8be5            mov     esp,ebp
001854e7 5d              pop     ebp
001854e8 c3              ret
--------------------------------------------------------------------------------------
001854e3 0100            add     dword ptr [eax],eax
001854e5 8be5            mov     esp,ebp
001854e7 5d              pop     ebp
001854e8 c3              ret
--------------------------------------------------------------------------------------
00185511 1a00            sbb     al,byte ptr [eax]
00185513 c3              ret
--------------------------------------------------------------------------------------
0018550f 3803            cmp     byte ptr [ebx],al
00185511 1a00            sbb     al,byte ptr [eax]
00185513 c3              ret
--------------------------------------------------------------------------------------
0018550e 1538031a00      adc     eax,offset notepad!_imp__SendMessageW (001a0338)
00185513 c3              ret
--------------------------------------------------------------------------------------
0018550c 00ff            add     bh,bh
0018550e 1538031a00      adc     eax,offset notepad!_imp__SendMessageW (001a0338)
00185513 c3              ret
--------------------------------------------------------------------------------------
00185600 5d              pop     ebp
00185601 c3              ret
--------------------------------------------------------------------------------------
001855fe 8be5            mov     esp,ebp
00185600 5d              pop     ebp
00185601 c3              ret
--------------------------------------------------------------------------------------
001855fc 0100            add     dword ptr [eax],eax
001855fe 8be5            mov     esp,ebp
00185600 5d              pop     ebp
00185601 c3              ret
--------------------------------------------------------------------------------------
001855fb 61              popad
001855fc 0100            add     dword ptr [eax],eax
001855fe 8be5            mov     esp,ebp
00185600 5d              pop     ebp
00185601 c3              ret
--------------------------------------------------------------------------------------
001855fa 82610100        and     byte ptr [ecx+1],0
001855fe 8be5            mov     esp,ebp
00185600 5d              pop     ebp
00185601 c3              ret
--------------------------------------------------------------------------------------
00185745 5d              pop     ebp
00185746 c20800          ret     8
--------------------------------------------------------------------------------------
00185743 8be5            mov     esp,ebp
00185745 5d              pop     ebp
00185746 c20800          ret     8
--------------------------------------------------------------------------------------
00185741 0100            add     dword ptr [eax],eax
00185743 8be5            mov     esp,ebp
00185745 5d              pop     ebp
00185746 c20800          ret     8
--------------------------------------------------------------------------------------
00185890 5d              pop     ebp
00185891 c3              ret
--------------------------------------------------------------------------------------
0018588e 8be5            mov     esp,ebp
00185890 5d              pop     ebp
00185891 c3              ret
--------------------------------------------------------------------------------------
0018588c 0100            add     dword ptr [eax],eax
0018588e 8be5            mov     esp,ebp
00185890 5d              pop     ebp
00185891 c3              ret
--------------------------------------------------------------------------------------
0018588b 5e              pop     esi
0018588c 0100            add     dword ptr [eax],eax
0018588e 8be5            mov     esp,ebp
00185890 5d              pop     ebp
00185891 c3              ret
--------------------------------------------------------------------------------------
0018588a f25e            repne pop esi
0018588c 0100            add     dword ptr [eax],eax
0018588e 8be5            mov     esp,ebp
00185890 5d              pop     ebp
00185891 c3              ret
--------------------------------------------------------------------------------------
0018591b 5d              pop     ebp
0018591c c3              ret
--------------------------------------------------------------------------------------
00185919 8be5            mov     esp,ebp
0018591b 5d              pop     ebp
0018591c c3              ret
--------------------------------------------------------------------------------------
00185917 0100            add     dword ptr [eax],eax
00185919 8be5            mov     esp,ebp
0018591b 5d              pop     ebp
0018591c c3              ret
--------------------------------------------------------------------------------------
00185916 5e              pop     esi
00185917 0100            add     dword ptr [eax],eax
00185919 8be5            mov     esp,ebp
0018591b 5d              pop     ebp
0018591c c3              ret
--------------------------------------------------------------------------------------
00185915 675e            pop     esi
00185917 0100            add     dword ptr [eax],eax
00185919 8be5            mov     esp,ebp
0018591b 5d              pop     ebp
0018591c c3              ret
--------------------------------------------------------------------------------------
00185ac7 5d              pop     ebp
00185ac8 c20800          ret     8
--------------------------------------------------------------------------------------
00185ac5 8be5            mov     esp,ebp
00185ac7 5d              pop     ebp
00185ac8 c20800          ret     8
--------------------------------------------------------------------------------------
00185ac3 0100            add     dword ptr [eax],eax
00185ac5 8be5            mov     esp,ebp
00185ac7 5d              pop     ebp
00185ac8 c20800          ret     8
--------------------------------------------------------------------------------------
001865d3 5d              pop     ebp
001865d4 c20400          ret     4
--------------------------------------------------------------------------------------
001865d1 8be5            mov     esp,ebp
001865d3 5d              pop     ebp
001865d4 c20400          ret     4
--------------------------------------------------------------------------------------
001865cf 0100            add     dword ptr [eax],eax
001865d1 8be5            mov     esp,ebp
001865d3 5d              pop     ebp
001865d4 c20400          ret     4
--------------------------------------------------------------------------------------
0018661b cb              retf
--------------------------------------------------------------------------------------
0018663e 5b              pop     ebx
0018663f c3              ret
--------------------------------------------------------------------------------------
0018663d 5e              pop     esi
0018663e 5b              pop     ebx
0018663f c3              ret
--------------------------------------------------------------------------------------
0018663c 005e5b          add     byte ptr [esi+5Bh],bl
0018663f c3              ret
--------------------------------------------------------------------------------------
0018663b 0000            add     byte ptr [eax],al
0018663d 5e              pop     esi
0018663e 5b              pop     ebx
0018663f c3              ret
--------------------------------------------------------------------------------------
0018663a 1900            sbb     dword ptr [eax],eax
0018663c 005e5b          add     byte ptr [esi+5Bh],bl
0018663f c3              ret
--------------------------------------------------------------------------------------
00186639 df19            fistp   word ptr [ecx]
0018663b 0000            add     byte ptr [eax],al
0018663d 5e              pop     esi
0018663e 5b              pop     ebx
0018663f c3              ret
--------------------------------------------------------------------------------------
0018668c 5b              pop     ebx
0018668d c3              ret
--------------------------------------------------------------------------------------
0018668b 5e              pop     esi
0018668c 5b              pop     ebx
0018668d c3              ret
--------------------------------------------------------------------------------------
0018668a 5f              pop     edi
0018668b 5e              pop     esi
0018668c 5b              pop     ebx
0018668d c3              ret
--------------------------------------------------------------------------------------
00186689 005f5e          add     byte ptr [edi+5Eh],bl
0018668c 5b              pop     ebx
0018668d c3              ret
--------------------------------------------------------------------------------------
00186688 1a00            sbb     al,byte ptr [eax]
0018668a 5f              pop     edi
0018668b 5e              pop     esi
0018668c 5b              pop     ebx
0018668d c3              ret
--------------------------------------------------------------------------------------
00186687 011a            add     dword ptr [edx],ebx
00186689 005f5e          add     byte ptr [edi+5Eh],bl
0018668c 5b              pop     ebx
0018668d c3              ret
--------------------------------------------------------------------------------------
001867be 5d              pop     ebp
001867bf c3              ret
--------------------------------------------------------------------------------------
001867bc 8be5            mov     esp,ebp
001867be 5d              pop     ebp
001867bf c3              ret
--------------------------------------------------------------------------------------
001867ba 0100            add     dword ptr [eax],eax
001867bc 8be5            mov     esp,ebp
001867be 5d              pop     ebp
001867bf c3              ret
--------------------------------------------------------------------------------------
001867b9 4f              dec     edi
001867ba 0100            add     dword ptr [eax],eax
001867bc 8be5            mov     esp,ebp
001867be 5d              pop     ebp
001867bf c3              ret
--------------------------------------------------------------------------------------
001868ec 800f84          or      byte ptr [edi],84h
001868ef c20000          ret     0
--------------------------------------------------------------------------------------
001868eb 07              pop     es
001868ec 800f84          or      byte ptr [edi],84h
001868ef c20000          ret     0
--------------------------------------------------------------------------------------
001868ea 0407            add     al,7
001868ec 800f84          or      byte ptr [edi],84h
001868ef c20000          ret     0
--------------------------------------------------------------------------------------
00186abf 5d              pop     ebp
00186ac0 c3              ret
--------------------------------------------------------------------------------------
00186abd 8be5            mov     esp,ebp
00186abf 5d              pop     ebp
00186ac0 c3              ret
--------------------------------------------------------------------------------------
00186abb 0100            add     dword ptr [eax],eax
00186abd 8be5            mov     esp,ebp
00186abf 5d              pop     ebp
00186ac0 c3              ret
--------------------------------------------------------------------------------------
00186aba 4c              dec     esp
00186abb 0100            add     dword ptr [eax],eax
00186abd 8be5            mov     esp,ebp
00186abf 5d              pop     ebp
00186ac0 c3              ret
--------------------------------------------------------------------------------------
00186ab9 c3              ret
--------------------------------------------------------------------------------------
0018709d 5d              pop     ebp
0018709e c21000          ret     10h
--------------------------------------------------------------------------------------
0018709b 8be5            mov     esp,ebp
0018709d 5d              pop     ebp
0018709e c21000          ret     10h
--------------------------------------------------------------------------------------
00187099 0100            add     dword ptr [eax],eax
0018709b 8be5            mov     esp,ebp
0018709d 5d              pop     ebp
0018709e c21000          ret     10h
--------------------------------------------------------------------------------------
001870f4 5b              pop     ebx
001870f5 c3              ret
--------------------------------------------------------------------------------------
001870f2 8bc1            mov     eax,ecx
001870f4 5b              pop     ebx
001870f5 c3              ret
--------------------------------------------------------------------------------------
001870f1 5e              pop     esi
001870f2 8bc1            mov     eax,ecx
001870f4 5b              pop     ebx
001870f5 c3              ret
--------------------------------------------------------------------------------------
001870f0 5f              pop     edi
001870f1 5e              pop     esi
001870f2 8bc1            mov     eax,ecx
001870f4 5b              pop     ebx
001870f5 c3              ret
--------------------------------------------------------------------------------------
0018714a 5d              pop     ebp
0018714b c3              ret
--------------------------------------------------------------------------------------
00187148 8be5            mov     esp,ebp
0018714a 5d              pop     ebp
0018714b c3              ret
--------------------------------------------------------------------------------------
00187147 5e              pop     esi
00187148 8be5            mov     esp,ebp
0018714a 5d              pop     ebp
0018714b c3              ret
--------------------------------------------------------------------------------------
00187145 8bc6            mov     eax,esi
00187147 5e              pop     esi
00187148 8be5            mov     esp,ebp
0018714a 5d              pop     ebp
0018714b c3              ret
--------------------------------------------------------------------------------------
00187144 008bc65e8be5    add     byte ptr [ebx-1A74A13Ah],cl
0018714a 5d              pop     ebp
0018714b c3              ret
--------------------------------------------------------------------------------------
0018734a 000b            add     byte ptr [ebx],cl
0018734c c27413          ret     1374h
--------------------------------------------------------------------------------------
00187348 df19            fistp   word ptr [ecx]
0018734a 000b            add     byte ptr [ebx],cl
0018734c c27413          ret     1374h
--------------------------------------------------------------------------------------
001873b0 5d              pop     ebp
001873b1 c21000          ret     10h
--------------------------------------------------------------------------------------
001873ae 8be5            mov     esp,ebp
001873b0 5d              pop     ebp
001873b1 c21000          ret     10h
--------------------------------------------------------------------------------------
001873ac 0100            add     dword ptr [eax],eax
001873ae 8be5            mov     esp,ebp
001873b0 5d              pop     ebp
001873b1 c21000          ret     10h
--------------------------------------------------------------------------------------
00187498 5d              pop     ebp
00187499 c3              ret
--------------------------------------------------------------------------------------
00187496 8be5            mov     esp,ebp
00187498 5d              pop     ebp
00187499 c3              ret
--------------------------------------------------------------------------------------
00187494 0100            add     dword ptr [eax],eax
00187496 8be5            mov     esp,ebp
00187498 5d              pop     ebp
00187499 c3              ret
--------------------------------------------------------------------------------------
00187493 42              inc     edx
00187494 0100            add     dword ptr [eax],eax
00187496 8be5            mov     esp,ebp
00187498 5d              pop     ebp
00187499 c3              ret
--------------------------------------------------------------------------------------
001875e7 5d              pop     ebp
001875e8 c3              ret
--------------------------------------------------------------------------------------
001875e5 8be5            mov     esp,ebp
001875e7 5d              pop     ebp
001875e8 c3              ret
--------------------------------------------------------------------------------------
001875e3 0100            add     dword ptr [eax],eax
001875e5 8be5            mov     esp,ebp
001875e7 5d              pop     ebp
001875e8 c3              ret
--------------------------------------------------------------------------------------
001875e2 41              inc     ecx
001875e3 0100            add     dword ptr [eax],eax
001875e5 8be5            mov     esp,ebp
001875e7 5d              pop     ebp
001875e8 c3              ret
--------------------------------------------------------------------------------------
0018762b 5e              pop     esi
0018762c c3              ret
--------------------------------------------------------------------------------------
00187629 8bc6            mov     eax,esi
0018762b 5e              pop     esi
0018762c c3              ret
--------------------------------------------------------------------------------------
00187628 5f              pop     edi
00187629 8bc6            mov     eax,esi
0018762b 5e              pop     esi
0018762c c3              ret
--------------------------------------------------------------------------------------
00187626 c6025f          mov     byte ptr [edx],5Fh
00187629 8bc6            mov     eax,esi
0018762b 5e              pop     esi
0018762c c3              ret
--------------------------------------------------------------------------------------
00187625 83c602          add     esi,2
00187628 5f              pop     edi
00187629 8bc6            mov     eax,esi
0018762b 5e              pop     esi
0018762c c3              ret
--------------------------------------------------------------------------------------
00187670 94              xchg    eax,esp
00187671 c3              ret
--------------------------------------------------------------------------------------
001877ed 5d              pop     ebp
001877ee c3              ret
--------------------------------------------------------------------------------------
001877eb 8be5            mov     esp,ebp
001877ed 5d              pop     ebp
001877ee c3              ret
--------------------------------------------------------------------------------------
001877ea 5b              pop     ebx
001877eb 8be5            mov     esp,ebp
001877ed 5d              pop     ebp
001877ee c3              ret
--------------------------------------------------------------------------------------
001877e9 5e              pop     esi
001877ea 5b              pop     ebx
001877eb 8be5            mov     esp,ebp
001877ed 5d              pop     ebp
001877ee c3              ret
--------------------------------------------------------------------------------------
001877e8 5f              pop     edi
001877e9 5e              pop     esi
001877ea 5b              pop     ebx
001877eb 8be5            mov     esp,ebp
001877ed 5d              pop     ebp
001877ee c3              ret
--------------------------------------------------------------------------------------
001877e7 005f5e          add     byte ptr [edi+5Eh],bl
001877ea 5b              pop     ebx
001877eb 8be5            mov     esp,ebp
001877ed 5d              pop     ebp
001877ee c3              ret
--------------------------------------------------------------------------------------
00187884 5d              pop     ebp
00187885 c20800          ret     8
--------------------------------------------------------------------------------------
00187882 8be5            mov     esp,ebp
00187884 5d              pop     ebp
00187885 c20800          ret     8
--------------------------------------------------------------------------------------
00187881 5b              pop     ebx
00187882 8be5            mov     esp,ebp
00187884 5d              pop     ebp
00187885 c20800          ret     8
--------------------------------------------------------------------------------------
00187880 5e              pop     esi
00187881 5b              pop     ebx
00187882 8be5            mov     esp,ebp
00187884 5d              pop     ebp
00187885 c20800          ret     8
--------------------------------------------------------------------------------------
00187918 5d              pop     ebp
00187919 c20c00          ret     0Ch
--------------------------------------------------------------------------------------
00187916 8be5            mov     esp,ebp
00187918 5d              pop     ebp
00187919 c20c00          ret     0Ch
--------------------------------------------------------------------------------------
00187915 5b              pop     ebx
00187916 8be5            mov     esp,ebp
00187918 5d              pop     ebp
00187919 c20c00          ret     0Ch
--------------------------------------------------------------------------------------
00187914 5e              pop     esi
00187915 5b              pop     ebx
00187916 8be5            mov     esp,ebp
00187918 5d              pop     ebp
00187919 c20c00          ret     0Ch
--------------------------------------------------------------------------------------
0018793f 1a00            sbb     al,byte ptr [eax]
00187941 c3              ret
--------------------------------------------------------------------------------------
0018793d 0c03            or      al,3
0018793f 1a00            sbb     al,byte ptr [eax]
00187941 c3              ret
--------------------------------------------------------------------------------------
0018793c 150c031a00      adc     eax,offset notepad!_imp__MessageBoxW (001a030c)
00187941 c3              ret
--------------------------------------------------------------------------------------
0018793a 00ff            add     bh,bh
0018793c 150c031a00      adc     eax,offset notepad!_imp__MessageBoxW (001a030c)
00187941 c3              ret
--------------------------------------------------------------------------------------
001879d4 5d              pop     ebp
001879d5 c3              ret
--------------------------------------------------------------------------------------
001879d2 8be5            mov     esp,ebp
001879d4 5d              pop     ebp
001879d5 c3              ret
--------------------------------------------------------------------------------------
001879d0 0100            add     dword ptr [eax],eax
001879d2 8be5            mov     esp,ebp
001879d4 5d              pop     ebp
001879d5 c3              ret
--------------------------------------------------------------------------------------
001879cf 3d01008be5      cmp     eax,0E58B0001h
001879d4 5d              pop     ebp
001879d5 c3              ret
--------------------------------------------------------------------------------------
001879ce ae              scas    byte ptr es:[edi]
001879cf 3d01008be5      cmp     eax,0E58B0001h
001879d4 5d              pop     ebp
001879d5 c3              ret
--------------------------------------------------------------------------------------
00187b78 5d              pop     ebp
00187b79 c21000          ret     10h
--------------------------------------------------------------------------------------
00187b76 8be5            mov     esp,ebp
00187b78 5d              pop     ebp
00187b79 c21000          ret     10h
--------------------------------------------------------------------------------------
00187b74 0100            add     dword ptr [eax],eax
00187b76 8be5            mov     esp,ebp
00187b78 5d              pop     ebp
00187b79 c21000          ret     10h
--------------------------------------------------------------------------------------
00187c03 5d              pop     ebp
00187c04 c3              ret
--------------------------------------------------------------------------------------
00187c01 8be5            mov     esp,ebp
00187c03 5d              pop     ebp
00187c04 c3              ret
--------------------------------------------------------------------------------------
00187c00 5b              pop     ebx
00187c01 8be5            mov     esp,ebp
00187c03 5d              pop     ebp
00187c04 c3              ret
--------------------------------------------------------------------------------------
00187bff 5e              pop     esi
00187c00 5b              pop     ebx
00187c01 8be5            mov     esp,ebp
00187c03 5d              pop     ebp
00187c04 c3              ret
--------------------------------------------------------------------------------------
00187bfe 5f              pop     edi
00187bff 5e              pop     esi
00187c00 5b              pop     ebx
00187c01 8be5            mov     esp,ebp
00187c03 5d              pop     ebp
00187c04 c3              ret
--------------------------------------------------------------------------------------
00187d91 5d              pop     ebp
00187d92 c21000          ret     10h
--------------------------------------------------------------------------------------
00187d8f 8be5            mov     esp,ebp
00187d91 5d              pop     ebp
00187d92 c21000          ret     10h
--------------------------------------------------------------------------------------
00187d8e 5e              pop     esi
00187d8f 8be5            mov     esp,ebp
00187d91 5d              pop     ebp
00187d92 c21000          ret     10h
--------------------------------------------------------------------------------------
00187d8d 40              inc     eax
00187d8e 5e              pop     esi
00187d8f 8be5            mov     esp,ebp
00187d91 5d              pop     ebp
00187d92 c21000          ret     10h
--------------------------------------------------------------------------------------
0018805d 5d              pop     ebp
0018805e c21000          ret     10h
--------------------------------------------------------------------------------------
0018805b 8be5            mov     esp,ebp
0018805d 5d              pop     ebp
0018805e c21000          ret     10h
--------------------------------------------------------------------------------------
00188059 0100            add     dword ptr [eax],eax
0018805b 8be5            mov     esp,ebp
0018805d 5d              pop     ebp
0018805e c21000          ret     10h
--------------------------------------------------------------------------------------
00188096 1a00            sbb     al,byte ptr [eax]
00188098 c3              ret
--------------------------------------------------------------------------------------
00188094 2403            and     al,3
00188096 1a00            sbb     al,byte ptr [eax]
00188098 c3              ret
--------------------------------------------------------------------------------------
00188093 1524031a00      adc     eax,offset notepad!_imp__PostMessageW (001a0324)
00188098 c3              ret
--------------------------------------------------------------------------------------
00188091 00ff            add     bh,bh
00188093 1524031a00      adc     eax,offset notepad!_imp__PostMessageW (001a0324)
00188098 c3              ret
--------------------------------------------------------------------------------------
001880f5 5d              pop     ebp
001880f6 c3              ret
--------------------------------------------------------------------------------------
001880f3 8be5            mov     esp,ebp
001880f5 5d              pop     ebp
001880f6 c3              ret
--------------------------------------------------------------------------------------
001880f2 5e              pop     esi
001880f3 8be5            mov     esp,ebp
001880f5 5d              pop     ebp
001880f6 c3              ret
--------------------------------------------------------------------------------------
001880f1 c05e8be5        rcr     byte ptr [esi-75h],0E5h
001880f5 5d              pop     ebp
001880f6 c3              ret
--------------------------------------------------------------------------------------
001880f0 33c0            xor     eax,eax
001880f2 5e              pop     esi
001880f3 8be5            mov     esp,ebp
001880f5 5d              pop     ebp
001880f6 c3              ret
--------------------------------------------------------------------------------------
001880ef 0233            add     dh,byte ptr [ebx]
001880f1 c05e8be5        rcr     byte ptr [esi-75h],0E5h
001880f5 5d              pop     ebp
001880f6 c3              ret
--------------------------------------------------------------------------------------
0018814f 5d              pop     ebp
00188150 c3              ret
--------------------------------------------------------------------------------------
0018814d 8be5            mov     esp,ebp
0018814f 5d              pop     ebp
00188150 c3              ret
--------------------------------------------------------------------------------------
0018814c 5e              pop     esi
0018814d 8be5            mov     esp,ebp
0018814f 5d              pop     ebp
00188150 c3              ret
--------------------------------------------------------------------------------------
00188174 5e              pop     esi
00188175 c3              ret
--------------------------------------------------------------------------------------
00188172 8bc6            mov     eax,esi
00188174 5e              pop     esi
00188175 c3              ret
--------------------------------------------------------------------------------------
00188171 5f              pop     edi
00188172 8bc6            mov     eax,esi
00188174 5e              pop     esi
00188175 c3              ret
--------------------------------------------------------------------------------------
0018816f 1a00            sbb     al,byte ptr [eax]
00188171 5f              pop     edi
00188172 8bc6            mov     eax,esi
00188174 5e              pop     esi
00188175 c3              ret
--------------------------------------------------------------------------------------
001881db 5d              pop     ebp
001881dc c3              ret
--------------------------------------------------------------------------------------
001881da 5e              pop     esi
001881db 5d              pop     ebp
001881dc c3              ret
--------------------------------------------------------------------------------------
001881d8 8bc6            mov     eax,esi
001881da 5e              pop     esi
001881db 5d              pop     ebp
001881dc c3              ret
--------------------------------------------------------------------------------------
001881d6 8901            mov     dword ptr [ecx],eax
001881d8 8bc6            mov     eax,esi
001881da 5e              pop     esi
001881db 5d              pop     ebp
001881dc c3              ret
--------------------------------------------------------------------------------------
001881d5 668901          mov     word ptr [ecx],ax
001881d8 8bc6            mov     eax,esi
001881da 5e              pop     esi
001881db 5d              pop     ebp
001881dc c3              ret
--------------------------------------------------------------------------------------
00188243 5d              pop     ebp
00188244 c3              ret
--------------------------------------------------------------------------------------
00188241 8be5            mov     esp,ebp
00188243 5d              pop     ebp
00188244 c3              ret
--------------------------------------------------------------------------------------
0018823f 0100            add     dword ptr [eax],eax
00188241 8be5            mov     esp,ebp
00188243 5d              pop     ebp
00188244 c3              ret
--------------------------------------------------------------------------------------
0018823e 3501008be5      xor     eax,0E58B0001h
00188243 5d              pop     ebp
00188244 c3              ret
--------------------------------------------------------------------------------------
0018823d 3f              aas
0018823e 3501008be5      xor     eax,0E58B0001h
00188243 5d              pop     ebp
00188244 c3              ret
--------------------------------------------------------------------------------------
001883a0 5d              pop     ebp
001883a1 c3              ret
--------------------------------------------------------------------------------------
0018839e 8be5            mov     esp,ebp
001883a0 5d              pop     ebp
001883a1 c3              ret
--------------------------------------------------------------------------------------
0018839c 0100            add     dword ptr [eax],eax
0018839e 8be5            mov     esp,ebp
001883a0 5d              pop     ebp
001883a1 c3              ret
--------------------------------------------------------------------------------------
0018839a e233            loop    notepad!StringCchCatW+0x2d (001883cf)
0018839c 0100            add     dword ptr [eax],eax
0018839e 8be5            mov     esp,ebp
001883a0 5d              pop     ebp
001883a1 c3              ret
--------------------------------------------------------------------------------------
001883e3 f62b            imul    byte ptr [ebx]
001883e5 c281e6          ret     0E681h
--------------------------------------------------------------------------------------
001883e1 de1b            ficomp  word ptr [ebx]
001883e3 f62b            imul    byte ptr [ebx]
001883e5 c281e6          ret     0E681h
--------------------------------------------------------------------------------------
001883df c3              ret
--------------------------------------------------------------------------------------
00188448 5d              pop     ebp
00188449 c20400          ret     4
--------------------------------------------------------------------------------------
00188447 5b              pop     ebx
00188448 5d              pop     ebp
00188449 c20400          ret     4
--------------------------------------------------------------------------------------
00188446 5e              pop     esi
00188447 5b              pop     ebx
00188448 5d              pop     ebp
00188449 c20400          ret     4
--------------------------------------------------------------------------------------
00188444 8bc6            mov     eax,esi
00188446 5e              pop     esi
00188447 5b              pop     ebx
00188448 5d              pop     ebp
00188449 c20400          ret     4
--------------------------------------------------------------------------------------
0018847a 5d              pop     ebp
0018847b c20400          ret     4
--------------------------------------------------------------------------------------
00188479 5e              pop     esi
0018847a 5d              pop     ebp
0018847b c20400          ret     4
--------------------------------------------------------------------------------------
00188478 5f              pop     edi
00188479 5e              pop     esi
0018847a 5d              pop     ebp
0018847b c20400          ret     4
--------------------------------------------------------------------------------------
0018852d 5d              pop     ebp
0018852e c20c00          ret     0Ch
--------------------------------------------------------------------------------------
0018852b 8be5            mov     esp,ebp
0018852d 5d              pop     ebp
0018852e c20c00          ret     0Ch
--------------------------------------------------------------------------------------
0018852a 5e              pop     esi
0018852b 8be5            mov     esp,ebp
0018852d 5d              pop     ebp
0018852e c20c00          ret     0Ch
--------------------------------------------------------------------------------------
00188529 5f              pop     edi
0018852a 5e              pop     esi
0018852b 8be5            mov     esp,ebp
0018852d 5d              pop     ebp
0018852e c20c00          ret     0Ch
--------------------------------------------------------------------------------------
00188592 1a00            sbb     al,byte ptr [eax]
00188594 c3              ret
--------------------------------------------------------------------------------------
00188590 3803            cmp     byte ptr [ebx],al
00188592 1a00            sbb     al,byte ptr [eax]
00188594 c3              ret
--------------------------------------------------------------------------------------
0018858f 1538031a00      adc     eax,offset notepad!_imp__SendMessageW (001a0338)
00188594 c3              ret
--------------------------------------------------------------------------------------
0018858d 00ff            add     bh,bh
0018858f 1538031a00      adc     eax,offset notepad!_imp__SendMessageW (001a0338)
00188594 c3              ret
--------------------------------------------------------------------------------------
001885cc 1a00            sbb     al,byte ptr [eax]
001885ce c3              ret
--------------------------------------------------------------------------------------
001885ca 3803            cmp     byte ptr [ebx],al
001885cc 1a00            sbb     al,byte ptr [eax]
001885ce c3              ret
--------------------------------------------------------------------------------------
001885c9 1538031a00      adc     eax,offset notepad!_imp__SendMessageW (001a0338)
001885ce c3              ret
--------------------------------------------------------------------------------------
001885c7 00ff            add     bh,bh
001885c9 1538031a00      adc     eax,offset notepad!_imp__SendMessageW (001a0338)
001885ce c3              ret
--------------------------------------------------------------------------------------
001888e2 5d              pop     ebp
001888e3 c20800          ret     8
--------------------------------------------------------------------------------------
001888e0 8be5            mov     esp,ebp
001888e2 5d              pop     ebp
001888e3 c20800          ret     8
--------------------------------------------------------------------------------------
001888de 0100            add     dword ptr [eax],eax
001888e0 8be5            mov     esp,ebp
001888e2 5d              pop     ebp
001888e3 c20800          ret     8
--------------------------------------------------------------------------------------
00188b6f 5d              pop     ebp
00188b70 c3              ret
--------------------------------------------------------------------------------------
00188b6d 8be5            mov     esp,ebp
00188b6f 5d              pop     ebp
00188b70 c3              ret
--------------------------------------------------------------------------------------
00188b6c 5b              pop     ebx
00188b6d 8be5            mov     esp,ebp
00188b6f 5d              pop     ebp
00188b70 c3              ret
--------------------------------------------------------------------------------------
00188b6b 5e              pop     esi
00188b6c 5b              pop     ebx
00188b6d 8be5            mov     esp,ebp
00188b6f 5d              pop     ebp
00188b70 c3              ret
--------------------------------------------------------------------------------------
00188b6a 5f              pop     edi
00188b6b 5e              pop     esi
00188b6c 5b              pop     ebx
00188b6d 8be5            mov     esp,ebp
00188b6f 5d              pop     ebp
00188b70 c3              ret
--------------------------------------------------------------------------------------
00188c33 00e9            add     cl,ch
00188c35 c3              ret
--------------------------------------------------------------------------------------
00188c31 0800            or      byte ptr [eax],al
00188c33 00e9            add     cl,ch
00188c35 c3              ret
--------------------------------------------------------------------------------------
00188c30 830800          or      dword ptr [eax],0
00188c33 00e9            add     cl,ch
00188c35 c3              ret
--------------------------------------------------------------------------------------
00188fc1 1e              push    ds
00188fc2 c3              ret
--------------------------------------------------------------------------------------
001890be 40              inc     eax
001890bf c3              ret
--------------------------------------------------------------------------------------
001890bc 33c0            xor     eax,eax
001890be 40              inc     eax
001890bf c3              ret
--------------------------------------------------------------------------------------
001890bb 50              push    eax
001890bc 33c0            xor     eax,eax
001890be 40              inc     eax
001890bf c3              ret
--------------------------------------------------------------------------------------
00189314 0100            add     dword ptr [eax],eax
00189316 c3              ret
--------------------------------------------------------------------------------------
00189312 c22a01          ret     12Ah
--------------------------------------------------------------------------------------
0018945b 5d              pop     ebp
0018945c c3              ret
--------------------------------------------------------------------------------------
00189459 8be5            mov     esp,ebp
0018945b 5d              pop     ebp
0018945c c3              ret
--------------------------------------------------------------------------------------
00189457 0100            add     dword ptr [eax],eax
00189459 8be5            mov     esp,ebp
0018945b 5d              pop     ebp
0018945c c3              ret
--------------------------------------------------------------------------------------
001894b5 5b              pop     ebx
001894b6 c3              ret
--------------------------------------------------------------------------------------
001894b4 5e              pop     esi
001894b5 5b              pop     ebx
001894b6 c3              ret
--------------------------------------------------------------------------------------
001894b3 5f              pop     edi
001894b4 5e              pop     esi
001894b5 5b              pop     ebx
001894b6 c3              ret
--------------------------------------------------------------------------------------
00189548 5d              pop     ebp
00189549 c3              ret
--------------------------------------------------------------------------------------
00189546 8be5            mov     esp,ebp
00189548 5d              pop     ebp
00189549 c3              ret
--------------------------------------------------------------------------------------
00189544 0100            add     dword ptr [eax],eax
00189546 8be5            mov     esp,ebp
00189548 5d              pop     ebp
00189549 c3              ret
--------------------------------------------------------------------------------------
00189542 3a22            cmp     ah,byte ptr [edx]
00189544 0100            add     dword ptr [eax],eax
00189546 8be5            mov     esp,ebp
00189548 5d              pop     ebp
00189549 c3              ret
--------------------------------------------------------------------------------------
0018956d 94              xchg    eax,esp
0018956e c3              ret
--------------------------------------------------------------------------------------
00189697 5d              pop     ebp
00189698 c3              ret
--------------------------------------------------------------------------------------
00189695 8be5            mov     esp,ebp
00189697 5d              pop     ebp
00189698 c3              ret
--------------------------------------------------------------------------------------
00189693 0100            add     dword ptr [eax],eax
00189695 8be5            mov     esp,ebp
00189697 5d              pop     ebp
00189698 c3              ret
--------------------------------------------------------------------------------------
001896c8 5d              pop     ebp
001896c9 c20800          ret     8
--------------------------------------------------------------------------------------
001896c7 5e              pop     esi
001896c8 5d              pop     ebp
001896c9 c20800          ret     8
--------------------------------------------------------------------------------------
001896c6 5f              pop     edi
001896c7 5e              pop     esi
001896c8 5d              pop     ebp
001896c9 c20800          ret     8
--------------------------------------------------------------------------------------
001896c5 005f5e          add     byte ptr [edi+5Eh],bl
001896c8 5d              pop     ebp
001896c9 c20800          ret     8
--------------------------------------------------------------------------------------
001896c4 1a00            sbb     al,byte ptr [eax]
001896c6 5f              pop     edi
001896c7 5e              pop     esi
001896c8 5d              pop     ebp
001896c9 c20800          ret     8
--------------------------------------------------------------------------------------
00189712 5d              pop     ebp
00189713 c20400          ret     4
--------------------------------------------------------------------------------------
00189710 8be5            mov     esp,ebp
00189712 5d              pop     ebp
00189713 c20400          ret     4
--------------------------------------------------------------------------------------
00189760 5d              pop     ebp
00189761 c20c00          ret     0Ch
--------------------------------------------------------------------------------------
0018975e 8be5            mov     esp,ebp
00189760 5d              pop     ebp
00189761 c20c00          ret     0Ch
--------------------------------------------------------------------------------------
0018975d 5e              pop     esi
0018975e 8be5            mov     esp,ebp
00189760 5d              pop     ebp
00189761 c20c00          ret     0Ch
--------------------------------------------------------------------------------------
0018975c 0c5e            or      al,5Eh
0018975e 8be5            mov     esp,ebp
00189760 5d              pop     ebp
00189761 c20c00          ret     0Ch
--------------------------------------------------------------------------------------
00189b10 5d              pop     ebp
00189b11 c3              ret
--------------------------------------------------------------------------------------
00189b0e 8be5            mov     esp,ebp
00189b10 5d              pop     ebp
00189b11 c3              ret
--------------------------------------------------------------------------------------
00189b0c 0100            add     dword ptr [eax],eax
00189b0e 8be5            mov     esp,ebp
00189b10 5d              pop     ebp
00189b11 c3              ret
--------------------------------------------------------------------------------------
00189e56 5d              pop     ebp
00189e57 c3              ret
--------------------------------------------------------------------------------------
00189e54 8be5            mov     esp,ebp
00189e56 5d              pop     ebp
00189e57 c3              ret
--------------------------------------------------------------------------------------
00189e52 0100            add     dword ptr [eax],eax
00189e54 8be5            mov     esp,ebp
00189e56 5d              pop     ebp
00189e57 c3              ret
--------------------------------------------------------------------------------------
00189e50 2c19            sub     al,19h
00189e52 0100            add     dword ptr [eax],eax
00189e54 8be5            mov     esp,ebp
00189e56 5d              pop     ebp
00189e57 c3              ret
--------------------------------------------------------------------------------------
00189e91 5b              pop     ebx
00189e92 c3              ret
--------------------------------------------------------------------------------------
00189e90 5e              pop     esi
00189e91 5b              pop     ebx
00189e92 c3              ret
--------------------------------------------------------------------------------------
00189e8f 5f              pop     edi
00189e90 5e              pop     esi
00189e91 5b              pop     ebx
00189e92 c3              ret
--------------------------------------------------------------------------------------
00189e8e c05f5e5b        rcr     byte ptr [edi+5Eh],5Bh
00189e92 c3              ret
--------------------------------------------------------------------------------------
00189e8d 33c0            xor     eax,eax
00189e8f 5f              pop     edi
00189e90 5e              pop     esi
00189e91 5b              pop     ebx
00189e92 c3              ret
--------------------------------------------------------------------------------------
00189f77 5d              pop     ebp
00189f78 c20400          ret     4
--------------------------------------------------------------------------------------
00189f75 8be5            mov     esp,ebp
00189f77 5d              pop     ebp
00189f78 c20400          ret     4
--------------------------------------------------------------------------------------
00189f73 0100            add     dword ptr [eax],eax
00189f75 8be5            mov     esp,ebp
00189f77 5d              pop     ebp
00189f78 c20400          ret     4
--------------------------------------------------------------------------------------
00189ff2 5d              pop     ebp
00189ff3 c3              ret
--------------------------------------------------------------------------------------
00189ff0 8be5            mov     esp,ebp
00189ff2 5d              pop     ebp
00189ff3 c3              ret
--------------------------------------------------------------------------------------
00189fef 5b              pop     ebx
00189ff0 8be5            mov     esp,ebp
00189ff2 5d              pop     ebp
00189ff3 c3              ret
--------------------------------------------------------------------------------------
00189fee 5e              pop     esi
00189fef 5b              pop     ebx
00189ff0 8be5            mov     esp,ebp
00189ff2 5d              pop     ebp
00189ff3 c3              ret
--------------------------------------------------------------------------------------
00189fed 5f              pop     edi
00189fee 5e              pop     esi
00189fef 5b              pop     ebx
00189ff0 8be5            mov     esp,ebp
00189ff2 5d              pop     ebp
00189ff3 c3              ret
--------------------------------------------------------------------------------------
00189fec ad              lods    dword ptr [esi]
00189fed 5f              pop     edi
00189fee 5e              pop     esi
00189fef 5b              pop     ebx
00189ff0 8be5            mov     esp,ebp
00189ff2 5d              pop     ebp
00189ff3 c3              ret
--------------------------------------------------------------------------------------
0018a0a3 5d              pop     ebp
0018a0a4 c3              ret
--------------------------------------------------------------------------------------
0018a0a1 8be5            mov     esp,ebp
0018a0a3 5d              pop     ebp
0018a0a4 c3              ret
--------------------------------------------------------------------------------------
0018a0a0 5b              pop     ebx
0018a0a1 8be5            mov     esp,ebp
0018a0a3 5d              pop     ebp
0018a0a4 c3              ret
--------------------------------------------------------------------------------------
0018a09f 5e              pop     esi
0018a0a0 5b              pop     ebx
0018a0a1 8be5            mov     esp,ebp
0018a0a3 5d              pop     ebp
0018a0a4 c3              ret
--------------------------------------------------------------------------------------
0018a09e 5f              pop     edi
0018a09f 5e              pop     esi
0018a0a0 5b              pop     ebx
0018a0a1 8be5            mov     esp,ebp
0018a0a3 5d              pop     ebp
0018a0a4 c3              ret
--------------------------------------------------------------------------------------
0018a09d c05f5e5b        rcr     byte ptr [edi+5Eh],5Bh
0018a0a1 8be5            mov     esp,ebp
0018a0a3 5d              pop     ebp
0018a0a4 c3              ret
--------------------------------------------------------------------------------------
0018a0b9 8bc1            mov     eax,ecx
0018a0bb c3              ret
--------------------------------------------------------------------------------------
0018a1fb 5b              pop     ebx
0018a1fc c3              ret
--------------------------------------------------------------------------------------
0018a1fa 5e              pop     esi
0018a1fb 5b              pop     ebx
0018a1fc c3              ret
--------------------------------------------------------------------------------------
0018a1f9 5f              pop     edi
0018a1fa 5e              pop     esi
0018a1fb 5b              pop     ebx
0018a1fc c3              ret
--------------------------------------------------------------------------------------
0018a1f8 c05f5e5b        rcr     byte ptr [edi+5Eh],5Bh
0018a1fc c3              ret
--------------------------------------------------------------------------------------
0018a1f7 33c0            xor     eax,eax
0018a1f9 5f              pop     edi
0018a1fa 5e              pop     esi
0018a1fb 5b              pop     ebx
0018a1fc c3              ret
--------------------------------------------------------------------------------------
0018a1f6 f9              stc
0018a1f7 33c0            xor     eax,eax
0018a1f9 5f              pop     edi
0018a1fa 5e              pop     esi
0018a1fb 5b              pop     ebx
0018a1fc c3              ret
--------------------------------------------------------------------------------------
0018a376 5d              pop     ebp
0018a377 c3              ret
--------------------------------------------------------------------------------------
0018a374 8be5            mov     esp,ebp
0018a376 5d              pop     ebp
0018a377 c3              ret
--------------------------------------------------------------------------------------
0018a373 5b              pop     ebx
0018a374 8be5            mov     esp,ebp
0018a376 5d              pop     ebp
0018a377 c3              ret
--------------------------------------------------------------------------------------
0018a372 5e              pop     esi
0018a373 5b              pop     ebx
0018a374 8be5            mov     esp,ebp
0018a376 5d              pop     ebp
0018a377 c3              ret
--------------------------------------------------------------------------------------
0018a371 5f              pop     edi
0018a372 5e              pop     esi
0018a373 5b              pop     ebx
0018a374 8be5            mov     esp,ebp
0018a376 5d              pop     ebp
0018a377 c3              ret
--------------------------------------------------------------------------------------
0018a370 c05f5e5b        rcr     byte ptr [edi+5Eh],5Bh
0018a374 8be5            mov     esp,ebp
0018a376 5d              pop     ebp
0018a377 c3              ret
--------------------------------------------------------------------------------------
0018a393 5d              pop     ebp
0018a394 c21000          ret     10h
--------------------------------------------------------------------------------------
0018a391 33c0            xor     eax,eax
0018a393 5d              pop     ebp
0018a394 c21000          ret     10h
--------------------------------------------------------------------------------------
0018a390 17              pop     ss
0018a391 33c0            xor     eax,eax
0018a393 5d              pop     ebp
0018a394 c21000          ret     10h
--------------------------------------------------------------------------------------
0018a38f 48              dec     eax
0018a390 17              pop     ss
0018a391 33c0            xor     eax,eax
0018a393 5d              pop     ebp
0018a394 c21000          ret     10h
--------------------------------------------------------------------------------------
0018a3c6 5d              pop     ebp
0018a3c7 c3              ret
--------------------------------------------------------------------------------------
0018a3c4 8be5            mov     esp,ebp
0018a3c6 5d              pop     ebp
0018a3c7 c3              ret
--------------------------------------------------------------------------------------
0018a3c2 e001            loopne  notepad!ShouldTrustCommandLineOptions+0x2e (0018a3c5)
0018a3c4 8be5            mov     esp,ebp
0018a3c6 5d              pop     ebp
0018a3c7 c3              ret
--------------------------------------------------------------------------------------
0018a3c1 83e001          and     eax,1
0018a3c4 8be5            mov     esp,ebp
0018a3c6 5d              pop     ebp
0018a3c7 c3              ret
--------------------------------------------------------------------------------------
0018a3c0 d083e0018be5    rol     byte ptr [ebx-1A74FE20h],1
0018a3c6 5d              pop     ebp
0018a3c7 c3              ret
--------------------------------------------------------------------------------------
0018a3fd 5e              pop     esi
0018a3fe c3              ret
--------------------------------------------------------------------------------------
0018a42a 5d              pop     ebp
0018a42b c20800          ret     8
--------------------------------------------------------------------------------------
0018a428 1a00            sbb     al,byte ptr [eax]
0018a42a 5d              pop     ebp
0018a42b c20800          ret     8
--------------------------------------------------------------------------------------
0018a4e0 5d              pop     ebp
0018a4e1 c3              ret
--------------------------------------------------------------------------------------
0018a4de 8be5            mov     esp,ebp
0018a4e0 5d              pop     ebp
0018a4e1 c3              ret
--------------------------------------------------------------------------------------
0018a4dc 0100            add     dword ptr [eax],eax
0018a4de 8be5            mov     esp,ebp
0018a4e0 5d              pop     ebp
0018a4e1 c3              ret
--------------------------------------------------------------------------------------
0018a813 0303            add     eax,dword ptr [ebx]
0018a815 c2c1f8          ret     0F8C1h
--------------------------------------------------------------------------------------
0018aa27 5d              pop     ebp
0018aa28 c20800          ret     8
--------------------------------------------------------------------------------------
0018aa25 8be5            mov     esp,ebp
0018aa27 5d              pop     ebp
0018aa28 c20800          ret     8
--------------------------------------------------------------------------------------
0018aa23 0100            add     dword ptr [eax],eax
0018aa25 8be5            mov     esp,ebp
0018aa27 5d              pop     ebp
0018aa28 c20800          ret     8
--------------------------------------------------------------------------------------
0018add9 d32b            shr     dword ptr [ebx],cl
0018addb c233f8          ret     0F833h
--------------------------------------------------------------------------------------
0018b0ea 02663b          add     ah,byte ptr [esi+3Bh]
0018b0ed c3              ret
--------------------------------------------------------------------------------------
0018b0e7 0183c102663b    add     dword ptr [ebx+3B6602C1h],eax
0018b0ed c3              ret
--------------------------------------------------------------------------------------
0018b15d 0d0000c0eb      or      eax,0EBC00000h
0018b162 c28b41          ret     418Bh
--------------------------------------------------------------------------------------
0018b30e 008bf38bfb8b    add     byte ptr [ebx-7404740Dh],cl
0018b314 c3              ret
--------------------------------------------------------------------------------------
0018b3f0 ff8bf38bfb8b    dec     dword ptr [ebx-7404740Dh]
0018b3f6 c3              ret
--------------------------------------------------------------------------------------
0018b976 043b            add     al,3Bh
0018b978 c27204          ret     472h
--------------------------------------------------------------------------------------
0018b975 42              inc     edx
0018b976 043b            add     al,3Bh
0018b978 c27204          ret     472h
--------------------------------------------------------------------------------------
0018ba90 043b            add     al,3Bh
0018ba92 c27204          ret     472h
--------------------------------------------------------------------------------------
0018ba8f 42              inc     edx
0018ba90 043b            add     al,3Bh
0018ba92 c27204          ret     472h
--------------------------------------------------------------------------------------
0018bb9d c23bc2          ret     0C23Bh
--------------------------------------------------------------------------------------
0018bbdc 043b            add     al,3Bh
0018bbde c27208          ret     872h
--------------------------------------------------------------------------------------
0018bbdb 42              inc     edx
0018bbdc 043b            add     al,3Bh
0018bbde c27208          ret     872h
--------------------------------------------------------------------------------------
0018bcfb c23bc2          ret     0C23Bh
--------------------------------------------------------------------------------------
0018bd36 043b            add     al,3Bh
0018bd38 c27208          ret     872h
--------------------------------------------------------------------------------------
0018bd35 42              inc     edx
0018bd36 043b            add     al,3Bh
0018bd38 c27208          ret     872h
--------------------------------------------------------------------------------------
0018bf62 043b            add     al,3Bh
0018bf64 c27208          ret     872h
--------------------------------------------------------------------------------------
0018bf61 42              inc     edx
0018bf62 043b            add     al,3Bh
0018bf64 c27208          ret     872h
--------------------------------------------------------------------------------------
0018c038 ca03c2          retf    0C203h
--------------------------------------------------------------------------------------
0018c03a c23bc2          ret     0C23Bh
--------------------------------------------------------------------------------------
0018c038 ca03c2          retf    0C203h
--------------------------------------------------------------------------------------
0018c075 043b            add     al,3Bh
0018c077 c27208          ret     872h
--------------------------------------------------------------------------------------
0018c074 42              inc     edx
0018c075 043b            add     al,3Bh
0018c077 c27208          ret     872h
--------------------------------------------------------------------------------------
0018c15c ca03c2          retf    0C203h
--------------------------------------------------------------------------------------
0018c15e c23bc2          ret     0C23Bh
--------------------------------------------------------------------------------------
0018c15c ca03c2          retf    0C203h
--------------------------------------------------------------------------------------
0018c199 043b            add     al,3Bh
0018c19b c27208          ret     872h
--------------------------------------------------------------------------------------
0018c198 42              inc     edx
0018c199 043b            add     al,3Bh
0018c19b c27208          ret     872h
--------------------------------------------------------------------------------------
0018c5cc cb              retf
--------------------------------------------------------------------------------------
0018c6b3 cb              retf
--------------------------------------------------------------------------------------
0018c799 d92b            fldcw   word ptr [ebx]
0018c79b c3              ret
--------------------------------------------------------------------------------------
0018c795 cb              retf
--------------------------------------------------------------------------------------
0018c794 17              pop     ss
0018c795 cb              retf
--------------------------------------------------------------------------------------
0018c7d3 8d90f4ffff8b    lea     edx,[eax-7400000Ch]
0018c7d9 c3              ret
--------------------------------------------------------------------------------------
0018cad8 3a3b            cmp     bh,byte ptr [ebx]
0018cada c27204          ret     472h
--------------------------------------------------------------------------------------
0018caee f73b            idiv    eax,dword ptr [ebx]
0018caf0 c27244          ret     4472h
--------------------------------------------------------------------------------------
0018caec f623            mul     al,byte ptr [ebx]
0018caee f73b            idiv    eax,dword ptr [ebx]
0018caf0 c27244          ret     4472h
--------------------------------------------------------------------------------------
0018caf9 048b            add     al,8Bh
0018cafb c2eb03          ret     3EBh
--------------------------------------------------------------------------------------
0018cc30 ff03            inc     dword ptr [ebx]
0018cc32 c23bc2          ret     0C23Bh
--------------------------------------------------------------------------------------
0018cc32 c23bc2          ret     0C23Bh
--------------------------------------------------------------------------------------
0018cc30 ff03            inc     dword ptr [ebx]
0018cc32 c23bc2          ret     0C23Bh
--------------------------------------------------------------------------------------
0018cd5c 048b            add     al,8Bh
0018cd5e c2eb03          ret     3EBh
--------------------------------------------------------------------------------------
0018cdf1 048b            add     al,8Bh
0018cdf3 c2eb03          ret     3EBh
--------------------------------------------------------------------------------------
0018db74 048b            add     al,8Bh
0018db76 c2eb03          ret     3EBh
--------------------------------------------------------------------------------------
0018dba1 c28bc2          ret     0C28Bh
--------------------------------------------------------------------------------------
0018e4d7 d32b            shr     dword ptr [ebx],cl
0018e4d9 c233f8          ret     0F833h
--------------------------------------------------------------------------------------
0018e7e3 02663b          add     ah,byte ptr [esi+3Bh]
0018e7e6 c3              ret
--------------------------------------------------------------------------------------
0018e7e0 0183c102663b    add     dword ptr [ebx+3B6602C1h],eax
0018e7e6 c3              ret
--------------------------------------------------------------------------------------
0018e856 0d0000c0eb      or      eax,0EBC00000h
0018e85b c28b41          ret     418Bh
--------------------------------------------------------------------------------------
0018eb3e d32b            shr     dword ptr [ebx],cl
0018eb40 c233f8          ret     0F833h
--------------------------------------------------------------------------------------
0018ee4a 02663b          add     ah,byte ptr [esi+3Bh]
0018ee4d c3              ret
--------------------------------------------------------------------------------------
0018ee47 0183c102663b    add     dword ptr [ebx+3B6602C1h],eax
0018ee4d c3              ret
--------------------------------------------------------------------------------------
0018eebd 0d0000c0eb      or      eax,0EBC00000h
0018eec2 c28b41          ret     418Bh
--------------------------------------------------------------------------------------
0018f05e f623            mul     al,byte ptr [ebx]
0018f060 c2538b          ret     8B53h
--------------------------------------------------------------------------------------
0018f05d 4d              dec     ebp
0018f05e f623            mul     al,byte ptr [ebx]
0018f060 c2538b          ret     8B53h
--------------------------------------------------------------------------------------
0018f23f 02663b          add     ah,byte ptr [esi+3Bh]
0018f242 c3              ret
--------------------------------------------------------------------------------------
0018f23c 0183c102663b    add     dword ptr [ebx+3B6602C1h],eax
0018f242 c3              ret
--------------------------------------------------------------------------------------
0018f373 02663b          add     ah,byte ptr [esi+3Bh]
0018f376 c3              ret
--------------------------------------------------------------------------------------
0018f370 0183c102663b    add     dword ptr [ebx+3B6602C1h],eax
0018f376 c3              ret
--------------------------------------------------------------------------------------
0018fa16 02663b          add     ah,byte ptr [esi+3Bh]
0018fa19 c3              ret
--------------------------------------------------------------------------------------
0018fa13 0183c102663b    add     dword ptr [ebx+3B6602C1h],eax
0018fa19 c3              ret
--------------------------------------------------------------------------------------
0018fbb0 ad              lods    dword ptr [esi]
0018fbb1 c3              ret
--------------------------------------------------------------------------------------
0018fc68 f5              cmc
0018fc69 c20000          ret     0
--------------------------------------------------------------------------------------
0018ff30 0303            add     eax,dword ptr [ebx]
0018ff32 c28bd3          ret     0D38Bh
--------------------------------------------------------------------------------------
0018ff8e 002b            add     byte ptr [ebx],ch
0018ff90 c2ffb5          ret     0B5FFh
--------------------------------------------------------------------------------------
0018ff8c d019            rcr     byte ptr [ecx],1
0018ff8e 002b            add     byte ptr [ebx],ch
0018ff90 c2ffb5          ret     0B5FFh
--------------------------------------------------------------------------------------
001901a0 d2423b          rol     byte ptr [edx+3Bh],cl
001901a3 c20f85          ret     850Fh
--------------------------------------------------------------------------------------
0019019e 0033            add     byte ptr [ebx],dh
001901a0 d2423b          rol     byte ptr [edx+3Bh],cl
001901a3 c20f85          ret     850Fh
--------------------------------------------------------------------------------------
00190c4c af              scas    dword ptr es:[edi]
00190c4d c28b95          ret     958Bh
--------------------------------------------------------------------------------------
00190c4a ff0f            dec     dword ptr [edi]
00190c4c af              scas    dword ptr es:[edi]
00190c4d c28b95          ret     958Bh
--------------------------------------------------------------------------------------
00190d02 ff02            inc     dword ptr [edx]
00190d04 c3              ret
--------------------------------------------------------------------------------------
00190d2f ff02            inc     dword ptr [edx]
00190d31 c3              ret
--------------------------------------------------------------------------------------
00190d54 ff02            inc     dword ptr [edx]
00190d56 c3              ret
--------------------------------------------------------------------------------------
00190d7c ff02            inc     dword ptr [edx]
00190d7e c3              ret
--------------------------------------------------------------------------------------
00191296 ff02            inc     dword ptr [edx]
00191298 c3              ret
--------------------------------------------------------------------------------------
001912c3 ff02            inc     dword ptr [edx]
001912c5 c3              ret
--------------------------------------------------------------------------------------
001912e8 ff02            inc     dword ptr [edx]
001912ea c3              ret
--------------------------------------------------------------------------------------
00191310 ff02            inc     dword ptr [edx]
00191312 c3              ret
--------------------------------------------------------------------------------------
0019135b ca03c3          retf    0C303h
--------------------------------------------------------------------------------------
00191359 ff03            inc     dword ptr [ebx]
0019135b ca03c3          retf    0C303h
--------------------------------------------------------------------------------------
00191512 ff03            inc     dword ptr [ebx]
00191514 c203bd          ret     0BD03h
--------------------------------------------------------------------------------------
00191b3c ff02            inc     dword ptr [edx]
00191b3e c3              ret
--------------------------------------------------------------------------------------
00191b69 ff02            inc     dword ptr [edx]
00191b6b c3              ret
--------------------------------------------------------------------------------------
00191b8e ff02            inc     dword ptr [edx]
00191b90 c3              ret
--------------------------------------------------------------------------------------
00191bb6 ff02            inc     dword ptr [edx]
00191bb8 c3              ret
--------------------------------------------------------------------------------------
001920e6 ff02            inc     dword ptr [edx]
001920e8 c3              ret
--------------------------------------------------------------------------------------
001920e2 8d7cf4ff        lea     edi,[esp+esi*8-1]
001920e6 ff02            inc     dword ptr [edx]
001920e8 c3              ret
--------------------------------------------------------------------------------------
00192113 ff02            inc     dword ptr [edx]
00192115 c3              ret
--------------------------------------------------------------------------------------
00192138 ff02            inc     dword ptr [edx]
0019213a c3              ret
--------------------------------------------------------------------------------------
00192160 ff02            inc     dword ptr [edx]
00192162 c3              ret
--------------------------------------------------------------------------------------
001921a9 ff03            inc     dword ptr [ebx]
001921ab c203cb          ret     0CB03h
--------------------------------------------------------------------------------------
0019232b 02663b          add     ah,byte ptr [esi+3Bh]
0019232e c3              ret
--------------------------------------------------------------------------------------
00192328 0183c102663b    add     dword ptr [ebx+3B6602C1h],eax
0019232e c3              ret
--------------------------------------------------------------------------------------
0019237a 02663b          add     ah,byte ptr [esi+3Bh]
0019237d c3              ret
--------------------------------------------------------------------------------------
00192377 0183c102663b    add     dword ptr [ebx+3B6602C1h],eax
0019237d c3              ret
--------------------------------------------------------------------------------------
001923cb 02663b          add     ah,byte ptr [esi+3Bh]
001923ce c3              ret
--------------------------------------------------------------------------------------
001923c8 0183c102663b    add     dword ptr [ebx+3B6602C1h],eax
001923ce c3              ret
--------------------------------------------------------------------------------------
00192660 d32b            shr     dword ptr [ebx],cl
00192662 c233f8          ret     0F833h
--------------------------------------------------------------------------------------
00192961 02663b          add     ah,byte ptr [esi+3Bh]
00192964 c3              ret
--------------------------------------------------------------------------------------
0019295e 0183c102663b    add     dword ptr [ebx+3B6602C1h],eax
00192964 c3              ret
--------------------------------------------------------------------------------------
001929d4 0d0000c0eb      or      eax,0EBC00000h
001929d9 c28b41          ret     418Bh
--------------------------------------------------------------------------------------
00192ce8 043b            add     al,3Bh
00192cea c27204          ret     472h
--------------------------------------------------------------------------------------
00192ce7 42              inc     edx
00192ce8 043b            add     al,3Bh
00192cea c27204          ret     472h
--------------------------------------------------------------------------------------
00192dd0 043b            add     al,3Bh
00192dd2 c27204          ret     472h
--------------------------------------------------------------------------------------
00192dcf 42              inc     edx
00192dd0 043b            add     al,3Bh
00192dd2 c27204          ret     472h
--------------------------------------------------------------------------------------
00192ed2 043b            add     al,3Bh
00192ed4 c27208          ret     872h
--------------------------------------------------------------------------------------
00192ed1 42              inc     edx
00192ed2 043b            add     al,3Bh
00192ed4 c27208          ret     872h
--------------------------------------------------------------------------------------
00192fe8 043b            add     al,3Bh
00192fea c27208          ret     872h
--------------------------------------------------------------------------------------
00192fe7 42              inc     edx
00192fe8 043b            add     al,3Bh
00192fea c27208          ret     872h
--------------------------------------------------------------------------------------
00193351 8588f4ffff83    test    dword ptr [eax-7C00000Ch],ecx
00193357 c3              ret
--------------------------------------------------------------------------------------
00193430 cb              retf
--------------------------------------------------------------------------------------
00193517 cb              retf
--------------------------------------------------------------------------------------
001935fd d92b            fldcw   word ptr [ebx]
001935ff c3              ret
--------------------------------------------------------------------------------------
001935f9 cb              retf
--------------------------------------------------------------------------------------
001935f8 17              pop     ss
001935f9 cb              retf
--------------------------------------------------------------------------------------
00193926 048b            add     al,8Bh
00193928 c2eb03          ret     3EBh
--------------------------------------------------------------------------------------
00193924 0472            add     al,72h
00193926 048b            add     al,8Bh
00193928 c2eb03          ret     3EBh
--------------------------------------------------------------------------------------
00193acb 0803            or      byte ptr [ebx],al
00193acd c23bc2          ret     0C23Bh
--------------------------------------------------------------------------------------
00193aca 40              inc     eax
00193acb 0803            or      byte ptr [ebx],al
00193acd c23bc2          ret     0C23Bh
--------------------------------------------------------------------------------------
00193acd c23bc2          ret     0C23Bh
--------------------------------------------------------------------------------------
00193acb 0803            or      byte ptr [ebx],al
00193acd c23bc2          ret     0C23Bh
--------------------------------------------------------------------------------------
00193aca 40              inc     eax
00193acb 0803            or      byte ptr [ebx],al
00193acd c23bc2          ret     0C23Bh
--------------------------------------------------------------------------------------
00193c3b 043b            add     al,3Bh
00193c3d c21bf6          ret     0F61Bh
--------------------------------------------------------------------------------------
00193c3a 42              inc     edx
00193c3b 043b            add     al,3Bh
00193c3d c21bf6          ret     0F61Bh
--------------------------------------------------------------------------------------
00193c7f 048b            add     al,8Bh
00193c81 c2eb03          ret     3EBh
--------------------------------------------------------------------------------------
00193d22 048b            add     al,8Bh
00193d24 c2eb03          ret     3EBh
--------------------------------------------------------------------------------------
001948a4 b8f3ffff8b      mov     eax,8BFFFFF3h
001948a9 c3              ret
--------------------------------------------------------------------------------------
001948a3 8db8f3ffff8b    lea     edi,[eax-7400000Dh]
001948a9 c3              ret
--------------------------------------------------------------------------------------
0019495b c0f83b          sar     al,3Bh
0019495e c20f82          ret     820Fh
--------------------------------------------------------------------------------------
00194ecc 5d              pop     ebp
00194ecd c3              ret
--------------------------------------------------------------------------------------
00194eca 8be5            mov     esp,ebp
00194ecc 5d              pop     ebp
00194ecd c3              ret
--------------------------------------------------------------------------------------
00194ec9 5b              pop     ebx
00194eca 8be5            mov     esp,ebp
00194ecc 5d              pop     ebp
00194ecd c3              ret
--------------------------------------------------------------------------------------
00194ec8 c05b8be5        rcr     byte ptr [ebx-75h],0E5h
00194ecc 5d              pop     ebp
00194ecd c3              ret
--------------------------------------------------------------------------------------
00194ec7 b7c0            mov     bh,0C0h
00194ec9 5b              pop     ebx
00194eca 8be5            mov     esp,ebp
00194ecc 5d              pop     ebp
00194ecd c3              ret
--------------------------------------------------------------------------------------
00194ec6 0fb7c0          movzx   eax,ax
00194ec9 5b              pop     ebx
00194eca 8be5            mov     esp,ebp
00194ecc 5d              pop     ebp
00194ecd c3              ret
--------------------------------------------------------------------------------------
00194f11 5d              pop     ebp
00194f12 c20c00          ret     0Ch
--------------------------------------------------------------------------------------
00194f10 5e              pop     esi
00194f11 5d              pop     ebp
00194f12 c20c00          ret     0Ch
--------------------------------------------------------------------------------------
00194f0f 5f              pop     edi
00194f10 5e              pop     esi
00194f11 5d              pop     ebp
00194f12 c20c00          ret     0Ch
--------------------------------------------------------------------------------------
00194f0e c05f5e5d        rcr     byte ptr [edi+5Eh],5Dh
00194f12 c20c00          ret     0Ch
--------------------------------------------------------------------------------------
00194f0d 33c0            xor     eax,eax
00194f0f 5f              pop     edi
00194f10 5e              pop     esi
00194f11 5d              pop     ebp
00194f12 c20c00          ret     0Ch
--------------------------------------------------------------------------------------
001950df 5d              pop     ebp
001950e0 c3              ret
--------------------------------------------------------------------------------------
001950dd 8be5            mov     esp,ebp
001950df 5d              pop     ebp
001950e0 c3              ret
--------------------------------------------------------------------------------------
001950dc 5e              pop     esi
001950dd 8be5            mov     esp,ebp
001950df 5d              pop     ebp
001950e0 c3              ret
--------------------------------------------------------------------------------------
001950db 5f              pop     edi
001950dc 5e              pop     esi
001950dd 8be5            mov     esp,ebp
001950df 5d              pop     ebp
001950e0 c3              ret
--------------------------------------------------------------------------------------
001950da 5b              pop     ebx
001950db 5f              pop     edi
001950dc 5e              pop     esi
001950dd 8be5            mov     esp,ebp
001950df 5d              pop     ebp
001950e0 c3              ret
--------------------------------------------------------------------------------------
001952ea 5d              pop     ebp
001952eb c3              ret
--------------------------------------------------------------------------------------
001952e8 8be5            mov     esp,ebp
001952ea 5d              pop     ebp
001952eb c3              ret
--------------------------------------------------------------------------------------
001952e6 0000            add     byte ptr [eax],al
001952e8 8be5            mov     esp,ebp
001952ea 5d              pop     ebp
001952eb c3              ret
--------------------------------------------------------------------------------------
001952e5 640000          add     byte ptr fs:[eax],al
001952e8 8be5            mov     esp,ebp
001952ea 5d              pop     ebp
001952eb c3              ret
--------------------------------------------------------------------------------------
001952e4 98              cwde
001952e5 640000          add     byte ptr fs:[eax],al
001952e8 8be5            mov     esp,ebp
001952ea 5d              pop     ebp
001952eb c3              ret
--------------------------------------------------------------------------------------
001952f0 33c0            xor     eax,eax
001952f2 c3              ret
--------------------------------------------------------------------------------------
001952eb c3              ret
--------------------------------------------------------------------------------------
001952fc 59              pop     ecx
001952fd c3              ret
--------------------------------------------------------------------------------------
001952fb 59              pop     ecx
001952fc 59              pop     ecx
001952fd c3              ret
--------------------------------------------------------------------------------------
001952fa 005959          add     byte ptr [ecx+59h],bl
001952fd c3              ret
--------------------------------------------------------------------------------------
001952f9 1a00            sbb     al,byte ptr [eax]
001952fb 59              pop     ecx
001952fc 59              pop     ecx
001952fd c3              ret
--------------------------------------------------------------------------------------
001952f8 041a            add     al,1Ah
001952fa 005959          add     byte ptr [ecx+59h],bl
001952fd c3              ret
--------------------------------------------------------------------------------------
001952f7 68041a0059      push    59001A04h
001952fc 59              pop     ecx
001952fd c3              ret
--------------------------------------------------------------------------------------
001952f6 1568041a00      adc     eax,offset notepad!_imp__wcsnlen (001a0468)
001952fb 59              pop     ecx
001952fc 59              pop     ecx
001952fd c3              ret
--------------------------------------------------------------------------------------
00195367 5d              pop     ebp
00195368 c20800          ret     8
--------------------------------------------------------------------------------------
00195365 8be5            mov     esp,ebp
00195367 5d              pop     ebp
00195368 c20800          ret     8
--------------------------------------------------------------------------------------
001953f0 5d              pop     ebp
001953f1 c21000          ret     10h
--------------------------------------------------------------------------------------
001953ef 40              inc     eax
001953f0 5d              pop     ebp
001953f1 c21000          ret     10h
--------------------------------------------------------------------------------------
001953ed 33c0            xor     eax,eax
001953ef 40              inc     eax
001953f0 5d              pop     ebp
001953f1 c21000          ret     10h
--------------------------------------------------------------------------------------
0019552b 5d              pop     ebp
0019552c c3              ret
--------------------------------------------------------------------------------------
00195529 8be5            mov     esp,ebp
0019552b 5d              pop     ebp
0019552c c3              ret
--------------------------------------------------------------------------------------
00195528 5b              pop     ebx
00195529 8be5            mov     esp,ebp
0019552b 5d              pop     ebp
0019552c c3              ret
--------------------------------------------------------------------------------------
00195527 5e              pop     esi
00195528 5b              pop     ebx
00195529 8be5            mov     esp,ebp
0019552b 5d              pop     ebp
0019552c c3              ret
--------------------------------------------------------------------------------------
00195526 5f              pop     edi
00195527 5e              pop     esi
00195528 5b              pop     ebx
00195529 8be5            mov     esp,ebp
0019552b 5d              pop     ebp
0019552c c3              ret
--------------------------------------------------------------------------------------
00195525 40              inc     eax
00195526 5f              pop     edi
00195527 5e              pop     esi
00195528 5b              pop     ebx
00195529 8be5            mov     esp,ebp
0019552b 5d              pop     ebp
0019552c c3              ret
--------------------------------------------------------------------------------------
001955ff 5d              pop     ebp
00195600 c3              ret
--------------------------------------------------------------------------------------
001955fd 8be5            mov     esp,ebp
001955ff 5d              pop     ebp
00195600 c3              ret
--------------------------------------------------------------------------------------
001955fc 5b              pop     ebx
001955fd 8be5            mov     esp,ebp
001955ff 5d              pop     ebp
00195600 c3              ret
--------------------------------------------------------------------------------------
001955fb 5e              pop     esi
001955fc 5b              pop     ebx
001955fd 8be5            mov     esp,ebp
001955ff 5d              pop     ebp
00195600 c3              ret
--------------------------------------------------------------------------------------
001955fa 5f              pop     edi
001955fb 5e              pop     esi
001955fc 5b              pop     ebx
001955fd 8be5            mov     esp,ebp
001955ff 5d              pop     ebp
00195600 c3              ret
--------------------------------------------------------------------------------------
00195a6b 082b            or      byte ptr [ebx],ch
00195a6d c28985          ret     8589h
--------------------------------------------------------------------------------------
00195a69 0074082b        add     byte ptr [eax+ecx+2Bh],dh
00195a6d c28985          ret     8589h
--------------------------------------------------------------------------------------
00195c9c 5d              pop     ebp
00195c9d c3              ret
--------------------------------------------------------------------------------------
00195c9a 8be5            mov     esp,ebp
00195c9c 5d              pop     ebp
00195c9d c3              ret
--------------------------------------------------------------------------------------
00195c98 0000            add     byte ptr [eax],al
00195c9a 8be5            mov     esp,ebp
00195c9c 5d              pop     ebp
00195c9d c3              ret
--------------------------------------------------------------------------------------
00195c97 5a              pop     edx
00195c98 0000            add     byte ptr [eax],al
00195c9a 8be5            mov     esp,ebp
00195c9c 5d              pop     ebp
00195c9d c3              ret
--------------------------------------------------------------------------------------
00195cbd 0000            add     byte ptr [eax],al
00195cbf c3              ret
--------------------------------------------------------------------------------------
00195cb8 83257ce5190000  and     dword ptr [notepad!hAbortDlgWnd (0019e57c)],0
00195cbf c3              ret
--------------------------------------------------------------------------------------
00195d86 5d              pop     ebp
00195d87 c21000          ret     10h
--------------------------------------------------------------------------------------
00195d85 5e              pop     esi
00195d86 5d              pop     ebp
00195d87 c21000          ret     10h
--------------------------------------------------------------------------------------
00195d84 5f              pop     edi
00195d85 5e              pop     esi
00195d86 5d              pop     ebp
00195d87 c21000          ret     10h
--------------------------------------------------------------------------------------
00195d83 c05f5e5d        rcr     byte ptr [edi+5Eh],5Dh
00195d87 c21000          ret     10h
--------------------------------------------------------------------------------------
00195d82 33c0            xor     eax,eax
00195d84 5f              pop     edi
00195d85 5e              pop     esi
00195d86 5d              pop     ebp
00195d87 c21000          ret     10h
--------------------------------------------------------------------------------------
00195e01 c60269          mov     byte ptr [edx],69h
00195e04 c20401          ret     104h
--------------------------------------------------------------------------------------
00196180 d203            rol     byte ptr [ebx],cl
00196182 c3              ret
--------------------------------------------------------------------------------------
0019617e 0133            add     dword ptr [ebx],esi
00196180 d203            rol     byte ptr [ebx],cl
00196182 c3              ret
--------------------------------------------------------------------------------------
0019617c ff8b0133d203    dec     dword ptr [ebx+3D23301h]
00196182 c3              ret
--------------------------------------------------------------------------------------
00196185 0481            add     al,81h
00196187 c3              ret
--------------------------------------------------------------------------------------
00196184 49              dec     ecx
00196185 0481            add     al,81h
00196187 c3              ret
--------------------------------------------------------------------------------------
00196182 c3              ret
--------------------------------------------------------------------------------------
00196180 d203            rol     byte ptr [ebx],cl
00196182 c3              ret
--------------------------------------------------------------------------------------
001961ab 5d              pop     ebp
001961ac c3              ret
--------------------------------------------------------------------------------------
001961a9 8be5            mov     esp,ebp
001961ab 5d              pop     ebp
001961ac c3              ret
--------------------------------------------------------------------------------------
001961a7 0000            add     byte ptr [eax],al
001961a9 8be5            mov     esp,ebp
001961ab 5d              pop     ebp
001961ac c3              ret
--------------------------------------------------------------------------------------
001961a6 55              push    ebp
001961a7 0000            add     byte ptr [eax],al
001961a9 8be5            mov     esp,ebp
001961ab 5d              pop     ebp
001961ac c3              ret
--------------------------------------------------------------------------------------
001961a5 d7              xlat    byte ptr [ebx]
001961a6 55              push    ebp
001961a7 0000            add     byte ptr [eax],al
001961a9 8be5            mov     esp,ebp
001961ab 5d              pop     ebp
001961ac c3              ret
--------------------------------------------------------------------------------------
001961f7 83c8ff          or      eax,0FFFFFFFFh
001961fa c3              ret
--------------------------------------------------------------------------------------
001961f5 1a00            sbb     al,byte ptr [eax]
001961f7 83c8ff          or      eax,0FFFFFFFFh
001961fa c3              ret
--------------------------------------------------------------------------------------
001961f3 0c03            or      al,3
001961f5 1a00            sbb     al,byte ptr [eax]
001961f7 83c8ff          or      eax,0FFFFFFFFh
001961fa c3              ret
--------------------------------------------------------------------------------------
0019626f 5e              pop     esi
00196270 c3              ret
--------------------------------------------------------------------------------------
0019626c 83c8ff          or      eax,0FFFFFFFFh
0019626f 5e              pop     esi
00196270 c3              ret
--------------------------------------------------------------------------------------
0019626a 1a00            sbb     al,byte ptr [eax]
0019626c 83c8ff          or      eax,0FFFFFFFFh
0019626f 5e              pop     esi
00196270 c3              ret
--------------------------------------------------------------------------------------
00196273 5e              pop     esi
00196274 c3              ret
--------------------------------------------------------------------------------------
00196271 8bc6            mov     eax,esi
00196273 5e              pop     esi
00196274 c3              ret
--------------------------------------------------------------------------------------
00196270 c3              ret
--------------------------------------------------------------------------------------
0019626f 5e              pop     esi
00196270 c3              ret
--------------------------------------------------------------------------------------
00196353 5d              pop     ebp
00196354 c3              ret
--------------------------------------------------------------------------------------
00196351 8be5            mov     esp,ebp
00196353 5d              pop     ebp
00196354 c3              ret
--------------------------------------------------------------------------------------
00196350 5b              pop     ebx
00196351 8be5            mov     esp,ebp
00196353 5d              pop     ebp
00196354 c3              ret
--------------------------------------------------------------------------------------
0019634f 5f              pop     edi
00196350 5b              pop     ebx
00196351 8be5            mov     esp,ebp
00196353 5d              pop     ebp
00196354 c3              ret
--------------------------------------------------------------------------------------
0019634e 5e              pop     esi
0019634f 5f              pop     edi
00196350 5b              pop     ebx
00196351 8be5            mov     esp,ebp
00196353 5d              pop     ebp
00196354 c3              ret
--------------------------------------------------------------------------------------
00196443 5d              pop     ebp
00196444 c3              ret
--------------------------------------------------------------------------------------
00196441 8be5            mov     esp,ebp
00196443 5d              pop     ebp
00196444 c3              ret
--------------------------------------------------------------------------------------
0019643f 0000            add     byte ptr [eax],al
00196441 8be5            mov     esp,ebp
00196443 5d              pop     ebp
00196444 c3              ret
--------------------------------------------------------------------------------------
0019643e 53              push    ebx
0019643f 0000            add     byte ptr [eax],al
00196441 8be5            mov     esp,ebp
00196443 5d              pop     ebp
00196444 c3              ret
--------------------------------------------------------------------------------------
0019643d 3f              aas
0019643e 53              push    ebx
0019643f 0000            add     byte ptr [eax],al
00196441 8be5            mov     esp,ebp
00196443 5d              pop     ebp
00196444 c3              ret
--------------------------------------------------------------------------------------
001964b9 5d              pop     ebp
001964ba c20800          ret     8
--------------------------------------------------------------------------------------
001964b8 5e              pop     esi
001964b9 5d              pop     ebp
001964ba c20800          ret     8
--------------------------------------------------------------------------------------
001964b6 8bc6            mov     eax,esi
001964b8 5e              pop     esi
001964b9 5d              pop     ebp
001964ba c20800          ret     8
--------------------------------------------------------------------------------------
001964b5 5f              pop     edi
001964b6 8bc6            mov     eax,esi
001964b8 5e              pop     esi
001964b9 5d              pop     ebp
001964ba c20800          ret     8
--------------------------------------------------------------------------------------
001965fd 5d              pop     ebp
001965fe c3              ret
--------------------------------------------------------------------------------------
001965fb 8be5            mov     esp,ebp
001965fd 5d              pop     ebp
001965fe c3              ret
--------------------------------------------------------------------------------------
001965fa 5b              pop     ebx
001965fb 8be5            mov     esp,ebp
001965fd 5d              pop     ebp
001965fe c3              ret
--------------------------------------------------------------------------------------
001965f9 5e              pop     esi
001965fa 5b              pop     ebx
001965fb 8be5            mov     esp,ebp
001965fd 5d              pop     ebp
001965fe c3              ret
--------------------------------------------------------------------------------------
001965f7 8bc6            mov     eax,esi
001965f9 5e              pop     esi
001965fa 5b              pop     ebx
001965fb 8be5            mov     esp,ebp
001965fd 5d              pop     ebp
001965fe c3              ret
--------------------------------------------------------------------------------------
00196630 0803            or      byte ptr [ebx],al
00196632 c3              ret
--------------------------------------------------------------------------------------
0019662f 45              inc     ebp
00196630 0803            or      byte ptr [ebx],al
00196632 c3              ret
--------------------------------------------------------------------------------------
001966fe f6465668        test    byte ptr [esi+56h],68h
00196702 c20000          ret     0
--------------------------------------------------------------------------------------
00196720 5d              pop     ebp
00196721 c20800          ret     8
--------------------------------------------------------------------------------------
0019671e 8be5            mov     esp,ebp
00196720 5d              pop     ebp
00196721 c20800          ret     8
--------------------------------------------------------------------------------------
0019671d 5b              pop     ebx
0019671e 8be5            mov     esp,ebp
00196720 5d              pop     ebp
00196721 c20800          ret     8
--------------------------------------------------------------------------------------
0019671c 5e              pop     esi
0019671d 5b              pop     ebx
0019671e 8be5            mov     esp,ebp
00196720 5d              pop     ebp
00196721 c20800          ret     8
--------------------------------------------------------------------------------------
00196820 5d              pop     ebp
00196821 c3              ret
--------------------------------------------------------------------------------------
0019681e 8be5            mov     esp,ebp
00196820 5d              pop     ebp
00196821 c3              ret
--------------------------------------------------------------------------------------
0019681d 5e              pop     esi
0019681e 8be5            mov     esp,ebp
00196820 5d              pop     ebp
00196821 c3              ret
--------------------------------------------------------------------------------------
0019681c 5f              pop     edi
0019681d 5e              pop     esi
0019681e 8be5            mov     esp,ebp
00196820 5d              pop     ebp
00196821 c3              ret
--------------------------------------------------------------------------------------
0019681b 5b              pop     ebx
0019681c 5f              pop     edi
0019681d 5e              pop     esi
0019681e 8be5            mov     esp,ebp
00196820 5d              pop     ebp
00196821 c3              ret
--------------------------------------------------------------------------------------
00196830 8bff            mov     edi,edi
00196832 c3              ret
--------------------------------------------------------------------------------------
001968c7 5d              pop     ebp
001968c8 c3              ret
--------------------------------------------------------------------------------------
001968c5 8be5            mov     esp,ebp
001968c7 5d              pop     ebp
001968c8 c3              ret
--------------------------------------------------------------------------------------
001968c3 0000            add     byte ptr [eax],al
001968c5 8be5            mov     esp,ebp
001968c7 5d              pop     ebp
001968c8 c3              ret
--------------------------------------------------------------------------------------
001968c2 4e              dec     esi
001968c3 0000            add     byte ptr [eax],al
001968c5 8be5            mov     esp,ebp
001968c7 5d              pop     ebp
001968c8 c3              ret
--------------------------------------------------------------------------------------
0019697b 5d              pop     ebp
0019697c c3              ret
--------------------------------------------------------------------------------------
00196979 8be5            mov     esp,ebp
0019697b 5d              pop     ebp
0019697c c3              ret
--------------------------------------------------------------------------------------
00196977 0000            add     byte ptr [eax],al
00196979 8be5            mov     esp,ebp
0019697b 5d              pop     ebp
0019697c c3              ret
--------------------------------------------------------------------------------------
00196976 4e              dec     esi
00196977 0000            add     byte ptr [eax],al
00196979 8be5            mov     esp,ebp
0019697b 5d              pop     ebp
0019697c c3              ret
--------------------------------------------------------------------------------------
00196975 07              pop     es
00196976 4e              dec     esi
00196977 0000            add     byte ptr [eax],al
00196979 8be5            mov     esp,ebp
0019697b 5d              pop     ebp
0019697c c3              ret
--------------------------------------------------------------------------------------
00196a22 5d              pop     ebp
00196a23 c3              ret
--------------------------------------------------------------------------------------
00196a20 8be5            mov     esp,ebp
00196a22 5d              pop     ebp
00196a23 c3              ret
--------------------------------------------------------------------------------------
00196a1e 0000            add     byte ptr [eax],al
00196a20 8be5            mov     esp,ebp
00196a22 5d              pop     ebp
00196a23 c3              ret
--------------------------------------------------------------------------------------
00196a1d 4d              dec     ebp
00196a1e 0000            add     byte ptr [eax],al
00196a20 8be5            mov     esp,ebp
00196a22 5d              pop     ebp
00196a23 c3              ret
--------------------------------------------------------------------------------------
00196a1c 60              pushad
00196a1d 4d              dec     ebp
00196a1e 0000            add     byte ptr [eax],al
00196a20 8be5            mov     esp,ebp
00196a22 5d              pop     ebp
00196a23 c3              ret
--------------------------------------------------------------------------------------
00196a79 0813            or      byte ptr [ebx],dl
00196a7b c3              ret
--------------------------------------------------------------------------------------
00196a76 c1016a          rol     dword ptr [ecx],6Ah
00196a79 0813            or      byte ptr [ebx],dl
00196a7b c3              ret
--------------------------------------------------------------------------------------
00196b34 5d              pop     ebp
00196b35 c3              ret
--------------------------------------------------------------------------------------
00196b32 8be5            mov     esp,ebp
00196b34 5d              pop     ebp
00196b35 c3              ret
--------------------------------------------------------------------------------------
00196b30 0000            add     byte ptr [eax],al
00196b32 8be5            mov     esp,ebp
00196b34 5d              pop     ebp
00196b35 c3              ret
--------------------------------------------------------------------------------------
00196b2f 4c              dec     esp
00196b30 0000            add     byte ptr [eax],al
00196b32 8be5            mov     esp,ebp
00196b34 5d              pop     ebp
00196b35 c3              ret
--------------------------------------------------------------------------------------
00196b2e 4e              dec     esi
00196b2f 4c              dec     esp
00196b30 0000            add     byte ptr [eax],al
00196b32 8be5            mov     esp,ebp
00196b34 5d              pop     ebp
00196b35 c3              ret
--------------------------------------------------------------------------------------
00196bca 5d              pop     ebp
00196bcb c3              ret
--------------------------------------------------------------------------------------
00196bc8 8be5            mov     esp,ebp
00196bca 5d              pop     ebp
00196bcb c3              ret
--------------------------------------------------------------------------------------
00196bc6 0000            add     byte ptr [eax],al
00196bc8 8be5            mov     esp,ebp
00196bca 5d              pop     ebp
00196bcb c3              ret
--------------------------------------------------------------------------------------
00196bc5 4b              dec     ebx
00196bc6 0000            add     byte ptr [eax],al
00196bc8 8be5            mov     esp,ebp
00196bca 5d              pop     ebp
00196bcb c3              ret
--------------------------------------------------------------------------------------
00196d38 5d              pop     ebp
00196d39 c3              ret
--------------------------------------------------------------------------------------
00196d36 8be5            mov     esp,ebp
00196d38 5d              pop     ebp
00196d39 c3              ret
--------------------------------------------------------------------------------------
00196d34 0000            add     byte ptr [eax],al
00196d36 8be5            mov     esp,ebp
00196d38 5d              pop     ebp
00196d39 c3              ret
--------------------------------------------------------------------------------------
00196d33 4a              dec     edx
00196d34 0000            add     byte ptr [eax],al
00196d36 8be5            mov     esp,ebp
00196d38 5d              pop     ebp
00196d39 c3              ret
--------------------------------------------------------------------------------------
00196d32 4a              dec     edx
00196d33 4a              dec     edx
00196d34 0000            add     byte ptr [eax],al
00196d36 8be5            mov     esp,ebp
00196d38 5d              pop     ebp
00196d39 c3              ret
--------------------------------------------------------------------------------------
00196d87 0213            add     dl,byte ptr [ebx]
00196d89 c3              ret
--------------------------------------------------------------------------------------
00196d84 c1016a          rol     dword ptr [ecx],6Ah
00196d87 0213            add     dl,byte ptr [ebx]
00196d89 c3              ret
--------------------------------------------------------------------------------------
001970df 5d              pop     ebp
001970e0 c20800          ret     8
--------------------------------------------------------------------------------------
001970dd 8be5            mov     esp,ebp
001970df 5d              pop     ebp
001970e0 c20800          ret     8
--------------------------------------------------------------------------------------
001970db 0000            add     byte ptr [eax],al
001970dd 8be5            mov     esp,ebp
001970df 5d              pop     ebp
001970e0 c20800          ret     8
--------------------------------------------------------------------------------------
00197195 5d              pop     ebp
00197196 c3              ret
--------------------------------------------------------------------------------------
00197193 8be5            mov     esp,ebp
00197195 5d              pop     ebp
00197196 c3              ret
--------------------------------------------------------------------------------------
00197191 0000            add     byte ptr [eax],al
00197193 8be5            mov     esp,ebp
00197195 5d              pop     ebp
00197196 c3              ret
--------------------------------------------------------------------------------------
00197190 45              inc     ebp
00197191 0000            add     byte ptr [eax],al
00197193 8be5            mov     esp,ebp
00197195 5d              pop     ebp
00197196 c3              ret
--------------------------------------------------------------------------------------
001971ae 0000            add     byte ptr [eax],al
001971b0 c3              ret
--------------------------------------------------------------------------------------
001971a9 832524e5190000  and     dword ptr [notepad!CBreakOnFailureT<CEmptyType>::g_hResultToBreakOn+0x294 (0019e524)],0
001971b0 c3              ret
--------------------------------------------------------------------------------------
001971f0 5d              pop     ebp
001971f1 c3              ret
--------------------------------------------------------------------------------------
001971ee 8be5            mov     esp,ebp
001971f0 5d              pop     ebp
001971f1 c3              ret
--------------------------------------------------------------------------------------
001971ed 5b              pop     ebx
001971ee 8be5            mov     esp,ebp
001971f0 5d              pop     ebp
001971f1 c3              ret
--------------------------------------------------------------------------------------
001971ec 5e              pop     esi
001971ed 5b              pop     ebx
001971ee 8be5            mov     esp,ebp
001971f0 5d              pop     ebp
001971f1 c3              ret
--------------------------------------------------------------------------------------
001971eb 5f              pop     edi
001971ec 5e              pop     esi
001971ed 5b              pop     ebx
001971ee 8be5            mov     esp,ebp
001971f0 5d              pop     ebp
001971f1 c3              ret
--------------------------------------------------------------------------------------
001971ea c05f5e5b        rcr     byte ptr [edi+5Eh],5Bh
001971ee 8be5            mov     esp,ebp
001971f0 5d              pop     ebp
001971f1 c3              ret
--------------------------------------------------------------------------------------
0019723d 5d              pop     ebp
0019723e c3              ret
--------------------------------------------------------------------------------------
0019723b 8be5            mov     esp,ebp
0019723d 5d              pop     ebp
0019723e c3              ret
--------------------------------------------------------------------------------------
0019723a 5e              pop     esi
0019723b 8be5            mov     esp,ebp
0019723d 5d              pop     ebp
0019723e c3              ret
--------------------------------------------------------------------------------------
00197239 c05e8be5        rcr     byte ptr [esi-75h],0E5h
0019723d 5d              pop     ebp
0019723e c3              ret
--------------------------------------------------------------------------------------
00197238 33c0            xor     eax,eax
0019723a 5e              pop     esi
0019723b 8be5            mov     esp,ebp
0019723d 5d              pop     ebp
0019723e c3              ret
--------------------------------------------------------------------------------------
00197237 0233            add     dh,byte ptr [ebx]
00197239 c05e8be5        rcr     byte ptr [esi-75h],0E5h
0019723d 5d              pop     ebp
0019723e c3              ret
--------------------------------------------------------------------------------------
0019729e 5d              pop     ebp
0019729f c20400          ret     4
--------------------------------------------------------------------------------------
0019729d 5e              pop     esi
0019729e 5d              pop     ebp
0019729f c20400          ret     4
--------------------------------------------------------------------------------------
0019729b 8bc6            mov     eax,esi
0019729d 5e              pop     esi
0019729e 5d              pop     ebp
0019729f c20400          ret     4
--------------------------------------------------------------------------------------
001972d3 5d              pop     ebp
001972d4 c20400          ret     4
--------------------------------------------------------------------------------------
001972d1 8911            mov     dword ptr [ecx],edx
001972d3 5d              pop     ebp
001972d4 c20400          ret     4
--------------------------------------------------------------------------------------
001972d0 668911          mov     word ptr [ecx],dx
001972d3 5d              pop     ebp
001972d4 c20400          ret     4
--------------------------------------------------------------------------------------
00197328 5d              pop     ebp
00197329 c20400          ret     4
--------------------------------------------------------------------------------------
00197327 5e              pop     esi
00197328 5d              pop     ebp
00197329 c20400          ret     4
--------------------------------------------------------------------------------------
00197326 5f              pop     edi
00197327 5e              pop     esi
00197328 5d              pop     ebp
00197329 c20400          ret     4
--------------------------------------------------------------------------------------
00197325 005f5e          add     byte ptr [edi+5Eh],bl
00197328 5d              pop     ebp
00197329 c20400          ret     4
--------------------------------------------------------------------------------------
00197324 0000            add     byte ptr [eax],al
00197326 5f              pop     edi
00197327 5e              pop     esi
00197328 5d              pop     ebp
00197329 c20400          ret     4
--------------------------------------------------------------------------------------
0019736e 5d              pop     ebp
0019736f c3              ret
--------------------------------------------------------------------------------------
0019736c 8bc1            mov     eax,ecx
0019736e 5d              pop     ebp
0019736f c3              ret
--------------------------------------------------------------------------------------
0019736a 8910            mov     dword ptr [eax],edx
0019736c 8bc1            mov     eax,ecx
0019736e 5d              pop     ebp
0019736f c3              ret
--------------------------------------------------------------------------------------
00197369 668910          mov     word ptr [eax],dx
0019736c 8bc1            mov     eax,ecx
0019736e 5d              pop     ebp
0019736f c3              ret
--------------------------------------------------------------------------------------
001973b7 5d              pop     ebp
001973b8 c20c00          ret     0Ch
--------------------------------------------------------------------------------------
001973b6 5f              pop     edi
001973b7 5d              pop     ebp
001973b8 c20c00          ret     0Ch
--------------------------------------------------------------------------------------
001973b4 8bc7            mov     eax,edi
001973b6 5f              pop     edi
001973b7 5d              pop     ebp
001973b8 c20c00          ret     0Ch
--------------------------------------------------------------------------------------
001973f4 8bc3            mov     eax,ebx
001973f6 5b              pop     ebx
001973f7 5d              pop     ebp
001973f8 c20c00          ret     0Ch
--------------------------------------------------------------------------------------
001973f3 5e              pop     esi
001973f4 8bc3            mov     eax,ebx
001973f6 5b              pop     ebx
001973f7 5d              pop     ebp
001973f8 c20c00          ret     0Ch
--------------------------------------------------------------------------------------
001973f7 5d              pop     ebp
001973f8 c20c00          ret     0Ch
--------------------------------------------------------------------------------------
001973f6 5b              pop     ebx
001973f7 5d              pop     ebp
001973f8 c20c00          ret     0Ch
--------------------------------------------------------------------------------------
001973f5 c3              ret
--------------------------------------------------------------------------------------
001973f4 8bc3            mov     eax,ebx
001973f6 5b              pop     ebx
001973f7 5d              pop     ebp
001973f8 c20c00          ret     0Ch
--------------------------------------------------------------------------------------
001973f3 5e              pop     esi
001973f4 8bc3            mov     eax,ebx
001973f6 5b              pop     ebx
001973f7 5d              pop     ebp
001973f8 c20c00          ret     0Ch
--------------------------------------------------------------------------------------
00197412 1900            sbb     dword ptr [eax],eax
00197414 c3              ret
--------------------------------------------------------------------------------------
0019740f a370e21900      mov     dword ptr [notepad!g_wil_details_ntdllModuleHandle (0019e270)],eax
00197414 c3              ret
--------------------------------------------------------------------------------------
0019740e 00a370e21900    add     byte ptr notepad!g_wil_details_ntdllModuleHandle (0019e270)[ebx],ah
00197414 c3              ret
--------------------------------------------------------------------------------------
0019740d 1a00            sbb     al,byte ptr [eax]
0019740f a370e21900      mov     dword ptr [notepad!g_wil_details_ntdllModuleHandle (0019e270)],eax
00197414 c3              ret
--------------------------------------------------------------------------------------
00197469 5d              pop     ebp
0019746a c3              ret
--------------------------------------------------------------------------------------
00197468 5e              pop     esi
00197469 5d              pop     ebp
0019746a c3              ret
--------------------------------------------------------------------------------------
00197466 8bc6            mov     eax,esi
00197468 5e              pop     esi
00197469 5d              pop     ebp
0019746a c3              ret
--------------------------------------------------------------------------------------
00197465 4e              dec     esi
00197466 8bc6            mov     eax,esi
00197468 5e              pop     esi
00197469 5d              pop     ebp
0019746a c3              ret
--------------------------------------------------------------------------------------
00197464 344e            xor     al,4Eh
00197466 8bc6            mov     eax,esi
00197468 5e              pop     esi
00197469 5d              pop     ebp
0019746a c3              ret
--------------------------------------------------------------------------------------
00197463 8d344e          lea     esi,[esi+ecx*2]
00197466 8bc6            mov     eax,esi
00197468 5e              pop     esi
00197469 5d              pop     ebp
0019746a c3              ret
--------------------------------------------------------------------------------------
00197671 5d              pop     ebp
00197672 c20400          ret     4
--------------------------------------------------------------------------------------
0019766f 8be5            mov     esp,ebp
00197671 5d              pop     ebp
00197672 c20400          ret     4
--------------------------------------------------------------------------------------
0019766d 0000            add     byte ptr [eax],al
0019766f 8be5            mov     esp,ebp
00197671 5d              pop     ebp
00197672 c20400          ret     4
--------------------------------------------------------------------------------------
00197686 40              inc     eax
00197687 c3              ret
--------------------------------------------------------------------------------------
00197684 1900            sbb     dword ptr [eax],eax
00197686 40              inc     eax
00197687 c3              ret
--------------------------------------------------------------------------------------
00197682 10e2            adc     dl,ah
00197684 1900            sbb     dword ptr [eax],eax
00197686 40              inc     eax
00197687 c3              ret
--------------------------------------------------------------------------------------
00197681 0510e21900      add     eax,offset notepad!`wil::details::RecordException'::`2'::s_cErrorCount (0019e210)
00197686 40              inc     eax
00197687 c3              ret
--------------------------------------------------------------------------------------
00197680 c10510e2190040  rol     dword ptr [notepad!`wil::details::RecordException'::`2'::s_cErrorCount (0019e210)],40h
00197687 c3              ret
--------------------------------------------------------------------------------------
00197699 40              inc     eax
0019769a c3              ret
--------------------------------------------------------------------------------------
00197697 1900            sbb     dword ptr [eax],eax
00197699 40              inc     eax
0019769a c3              ret
--------------------------------------------------------------------------------------
00197695 28e2            sub     dl,ah
00197697 1900            sbb     dword ptr [eax],eax
00197699 40              inc     eax
0019769a c3              ret
--------------------------------------------------------------------------------------
00197694 0528e21900      add     eax,offset notepad!`wil::details::RecordReturn'::`2'::s_cErrorCount (0019e228)
00197699 40              inc     eax
0019769a c3              ret
--------------------------------------------------------------------------------------
00197693 c10528e2190040  rol     dword ptr [notepad!`wil::details::RecordReturn'::`2'::s_cErrorCount (0019e228)],40h
0019769a c3              ret
--------------------------------------------------------------------------------------
001976ac 40              inc     eax
001976ad c3              ret
--------------------------------------------------------------------------------------
001976aa 1900            sbb     dword ptr [eax],eax
001976ac 40              inc     eax
001976ad c3              ret
--------------------------------------------------------------------------------------
001976a7 0580e21900      add     eax,offset notepad!`wil::details::RecordLog'::`2'::s_cErrorCount (0019e280)
001976ac 40              inc     eax
001976ad c3              ret
--------------------------------------------------------------------------------------
001976a6 c10580e2190040  rol     dword ptr [notepad!`wil::details::RecordLog'::`2'::s_cErrorCount (0019e280)],40h
001976ad c3              ret
--------------------------------------------------------------------------------------
001976c0 5d              pop     ebp
001976c1 c20400          ret     4
--------------------------------------------------------------------------------------
001976bf 40              inc     eax
001976c0 5d              pop     ebp
001976c1 c20400          ret     4
--------------------------------------------------------------------------------------
001976bd 33c0            xor     eax,eax
001976bf 40              inc     eax
001976c0 5d              pop     ebp
001976c1 c20400          ret     4
--------------------------------------------------------------------------------------
00197783 5d              pop     ebp
00197784 c21000          ret     10h
--------------------------------------------------------------------------------------
00197781 8be5            mov     esp,ebp
00197783 5d              pop     ebp
00197784 c21000          ret     10h
--------------------------------------------------------------------------------------
0019777f 0000            add     byte ptr [eax],al
00197781 8be5            mov     esp,ebp
00197783 5d              pop     ebp
00197784 c21000          ret     10h
--------------------------------------------------------------------------------------
001977b7 5e              pop     esi
001977b8 c3              ret
--------------------------------------------------------------------------------------
001977b5 8bc6            mov     eax,esi
001977b7 5e              pop     esi
001977b8 c3              ret
--------------------------------------------------------------------------------------
001977b3 0001            add     byte ptr [ecx],al
001977b5 8bc6            mov     eax,esi
001977b7 5e              pop     esi
001977b8 c3              ret
--------------------------------------------------------------------------------------
001977b1 e219            loop    notepad!wil::details::DebugBreak+0xc (001977cc)
001977b3 0001            add     byte ptr [ecx],al
001977b5 8bc6            mov     eax,esi
001977b7 5e              pop     esi
001977b8 c3              ret
--------------------------------------------------------------------------------------
00197823 5d              pop     ebp
00197824 c3              ret
--------------------------------------------------------------------------------------
00197821 8be5            mov     esp,ebp
00197823 5d              pop     ebp
00197824 c3              ret
--------------------------------------------------------------------------------------
0019781f 0000            add     byte ptr [eax],al
00197821 8be5            mov     esp,ebp
00197823 5d              pop     ebp
00197824 c3              ret
--------------------------------------------------------------------------------------
0019781e 3f              aas
0019781f 0000            add     byte ptr [eax],al
00197821 8be5            mov     esp,ebp
00197823 5d              pop     ebp
00197824 c3              ret
--------------------------------------------------------------------------------------
0019781d 5f              pop     edi
0019781e 3f              aas
0019781f 0000            add     byte ptr [eax],al
00197821 8be5            mov     esp,ebp
00197823 5d              pop     ebp
00197824 c3              ret
--------------------------------------------------------------------------------------
00197859 5d              pop     ebp
0019785a c21000          ret     10h
--------------------------------------------------------------------------------------
00197858 5e              pop     esi
00197859 5d              pop     ebp
0019785a c21000          ret     10h
--------------------------------------------------------------------------------------
00197857 5f              pop     edi
00197858 5e              pop     esi
00197859 5d              pop     ebp
0019785a c21000          ret     10h
--------------------------------------------------------------------------------------
00197856 005f5e          add     byte ptr [edi+5Eh],bl
00197859 5d              pop     ebp
0019785a c21000          ret     10h
--------------------------------------------------------------------------------------
00197855 0000            add     byte ptr [eax],al
00197857 5f              pop     edi
00197858 5e              pop     esi
00197859 5d              pop     ebp
0019785a c21000          ret     10h
--------------------------------------------------------------------------------------
0019787e 5d              pop     ebp
0019787f c3              ret
--------------------------------------------------------------------------------------
00197879 0d00000780      or      eax,80070000h
0019787e 5d              pop     ebp
0019787f c3              ret
--------------------------------------------------------------------------------------
00197878 c00d000007805d  ror     byte ptr ds:[80070000h],5Dh
0019787f c3              ret
--------------------------------------------------------------------------------------
00197886 58              pop     eax
00197887 c3              ret
--------------------------------------------------------------------------------------
00197884 6a02            push    2
00197886 58              pop     eax
00197887 c3              ret
--------------------------------------------------------------------------------------
0019789f 0000            add     byte ptr [eax],al
001978a1 c3              ret
--------------------------------------------------------------------------------------
0019789d 0200            add     al,byte ptr [eax]
0019789f 0000            add     byte ptr [eax],al
001978a1 c3              ret
--------------------------------------------------------------------------------------
0019789c 4d              dec     ebp
0019789d 0200            add     al,byte ptr [eax]
0019789f 0000            add     byte ptr [eax],al
001978a1 c3              ret
--------------------------------------------------------------------------------------
0019789b 044d            add     al,4Dh
0019789d 0200            add     al,byte ptr [eax]
0019789f 0000            add     byte ptr [eax],al
001978a1 c3              ret
--------------------------------------------------------------------------------------
0019789a 8d044d02000000  lea     eax,[ecx*2+2]
001978a1 c3              ret
--------------------------------------------------------------------------------------
00197ad8 5d              pop     ebp
00197ad9 c23400          ret     34h
--------------------------------------------------------------------------------------
00197ad6 8be5            mov     esp,ebp
00197ad8 5d              pop     ebp
00197ad9 c23400          ret     34h
--------------------------------------------------------------------------------------
00197ad4 0000            add     byte ptr [eax],al
00197ad6 8be5            mov     esp,ebp
00197ad8 5d              pop     ebp
00197ad9 c23400          ret     34h
--------------------------------------------------------------------------------------
00197bbd 5d              pop     ebp
00197bbe c22000          ret     20h
--------------------------------------------------------------------------------------
00197bbb 8be5            mov     esp,ebp
00197bbd 5d              pop     ebp
00197bbe c22000          ret     20h
--------------------------------------------------------------------------------------
00197bb9 0000            add     byte ptr [eax],al
00197bbb 8be5            mov     esp,ebp
00197bbd 5d              pop     ebp
00197bbe c22000          ret     20h
--------------------------------------------------------------------------------------
00197be4 5d              pop     ebp
00197be5 c21800          ret     18h
--------------------------------------------------------------------------------------
00197be2 8be5            mov     esp,ebp
00197be4 5d              pop     ebp
00197be5 c21800          ret     18h
--------------------------------------------------------------------------------------
00197bff 148b            adc     al,8Bh
00197c01 c2894d          ret     4D89h
--------------------------------------------------------------------------------------
00197c6b 5d              pop     ebp
00197c6c c21400          ret     14h
--------------------------------------------------------------------------------------
00197c69 8be5            mov     esp,ebp
00197c6b 5d              pop     ebp
00197c6c c21400          ret     14h
--------------------------------------------------------------------------------------
00197c67 0000            add     byte ptr [eax],al
00197c69 8be5            mov     esp,ebp
00197c6b 5d              pop     ebp
00197c6c c21400          ret     14h
--------------------------------------------------------------------------------------
00197ce7 5d              pop     ebp
00197ce8 c21400          ret     14h
--------------------------------------------------------------------------------------
00197ce5 8be5            mov     esp,ebp
00197ce7 5d              pop     ebp
00197ce8 c21400          ret     14h
--------------------------------------------------------------------------------------
00197ce3 0000            add     byte ptr [eax],al
00197ce5 8be5            mov     esp,ebp
00197ce7 5d              pop     ebp
00197ce8 c21400          ret     14h
--------------------------------------------------------------------------------------
00197d44 5d              pop     ebp
00197d45 c20800          ret     8
--------------------------------------------------------------------------------------
00197d42 8be5            mov     esp,ebp
00197d44 5d              pop     ebp
00197d45 c20800          ret     8
--------------------------------------------------------------------------------------
00197d40 0000            add     byte ptr [eax],al
00197d42 8be5            mov     esp,ebp
00197d44 5d              pop     ebp
00197d45 c20800          ret     8
--------------------------------------------------------------------------------------
00197d61 5d              pop     ebp
00197d62 c20800          ret     8
--------------------------------------------------------------------------------------
00197d7a 5d              pop     ebp
00197d7b c20400          ret     4
--------------------------------------------------------------------------------------
00197d79 59              pop     ecx
00197d7a 5d              pop     ebp
00197d7b c20400          ret     4
--------------------------------------------------------------------------------------
00197d91 5d              pop     ebp
00197d92 c20400          ret     4
--------------------------------------------------------------------------------------
00197d90 59              pop     ecx
00197d91 5d              pop     ebp
00197d92 c20400          ret     4
--------------------------------------------------------------------------------------
00197db7 5d              pop     ebp
00197db8 c20400          ret     4
--------------------------------------------------------------------------------------
00197dd5 5d              pop     ebp
00197dd6 c20400          ret     4
--------------------------------------------------------------------------------------
00197dd4 59              pop     ecx
00197dd5 5d              pop     ebp
00197dd6 c20400          ret     4
--------------------------------------------------------------------------------------
00197dd1 c07405595d      sal     byte ptr [ebp+eax+59h],5Dh
00197dd6 c20400          ret     4
--------------------------------------------------------------------------------------
00197dfa 5d              pop     ebp
00197dfb c20400          ret     4
--------------------------------------------------------------------------------------
00197df9 045d            add     al,5Dh
00197dfb c20400          ret     4
--------------------------------------------------------------------------------------
00197ea6 5d              pop     ebp
00197ea7 c21000          ret     10h
--------------------------------------------------------------------------------------
00197ea4 8be5            mov     esp,ebp
00197ea6 5d              pop     ebp
00197ea7 c21000          ret     10h
--------------------------------------------------------------------------------------
00197ea2 0000            add     byte ptr [eax],al
00197ea4 8be5            mov     esp,ebp
00197ea6 5d              pop     ebp
00197ea7 c21000          ret     10h
--------------------------------------------------------------------------------------
00197fc9 5d              pop     ebp
00197fca c3              ret
--------------------------------------------------------------------------------------
00197fc7 8be5            mov     esp,ebp
00197fc9 5d              pop     ebp
00197fca c3              ret
--------------------------------------------------------------------------------------
00197fc6 5b              pop     ebx
00197fc7 8be5            mov     esp,ebp
00197fc9 5d              pop     ebp
00197fca c3              ret
--------------------------------------------------------------------------------------
00197fc5 5e              pop     esi
00197fc6 5b              pop     ebx
00197fc7 8be5            mov     esp,ebp
00197fc9 5d              pop     ebp
00197fca c3              ret
--------------------------------------------------------------------------------------
00197fc4 5f              pop     edi
00197fc5 5e              pop     esi
00197fc6 5b              pop     ebx
00197fc7 8be5            mov     esp,ebp
00197fc9 5d              pop     ebp
00197fca c3              ret
--------------------------------------------------------------------------------------
0019800f 1ce8            sbb     al,0E8h
00198011 c2f2ff          ret     0FFF2h
--------------------------------------------------------------------------------------
001980a6 5d              pop     ebp
001980a7 c20800          ret     8
--------------------------------------------------------------------------------------
001980a4 8be5            mov     esp,ebp
001980a6 5d              pop     ebp
001980a7 c20800          ret     8
--------------------------------------------------------------------------------------
001980a2 0000            add     byte ptr [eax],al
001980a4 8be5            mov     esp,ebp
001980a6 5d              pop     ebp
001980a7 c20800          ret     8
--------------------------------------------------------------------------------------
001981ba 5d              pop     ebp
001981bb c20800          ret     8
--------------------------------------------------------------------------------------
001981b8 8be5            mov     esp,ebp
001981ba 5d              pop     ebp
001981bb c20800          ret     8
--------------------------------------------------------------------------------------
001981b7 5b              pop     ebx
001981b8 8be5            mov     esp,ebp
001981ba 5d              pop     ebp
001981bb c20800          ret     8
--------------------------------------------------------------------------------------
001981b6 5e              pop     esi
001981b7 5b              pop     ebx
001981b8 8be5            mov     esp,ebp
001981ba 5d              pop     ebp
001981bb c20800          ret     8
--------------------------------------------------------------------------------------
001981f5 d43b            aamb    3Bh
001981f7 c3              ret
--------------------------------------------------------------------------------------
001981f4 46              inc     esi
001981f5 d43b            aamb    3Bh
001981f7 c3              ret
--------------------------------------------------------------------------------------
00198216 5b              pop     ebx
00198217 c3              ret
--------------------------------------------------------------------------------------
00198215 5e              pop     esi
00198216 5b              pop     ebx
00198217 c3              ret
--------------------------------------------------------------------------------------
00198214 5f              pop     edi
00198215 5e              pop     esi
00198216 5b              pop     ebx
00198217 c3              ret
--------------------------------------------------------------------------------------
00198213 145f            adc     al,5Fh
00198215 5e              pop     esi
00198216 5b              pop     ebx
00198217 c3              ret
--------------------------------------------------------------------------------------
00198212 47              inc     edi
00198213 145f            adc     al,5Fh
00198215 5e              pop     esi
00198216 5b              pop     ebx
00198217 c3              ret
--------------------------------------------------------------------------------------
00198211 894714          mov     dword ptr [edi+14h],eax
00198214 5f              pop     edi
00198215 5e              pop     esi
00198216 5b              pop     ebx
00198217 c3              ret
--------------------------------------------------------------------------------------
00198210 108947145f5e    adc     byte ptr [ecx+5E5F1447h],cl
00198216 5b              pop     ebx
00198217 c3              ret
--------------------------------------------------------------------------------------
00198264 1803            sbb     byte ptr [ebx],al
00198266 c3              ret
--------------------------------------------------------------------------------------
00198261 0566891803      add     eax,3188966h
00198266 c3              ret
--------------------------------------------------------------------------------------
0019825f 00eb            add     bl,ch
00198261 0566891803      add     eax,3188966h
00198266 c3              ret
--------------------------------------------------------------------------------------
001982d2 5d              pop     ebp
001982d3 c20400          ret     4
--------------------------------------------------------------------------------------
001982d1 5b              pop     ebx
001982d2 5d              pop     ebp
001982d3 c20400          ret     4
--------------------------------------------------------------------------------------
001982d0 5e              pop     esi
001982d1 5b              pop     ebx
001982d2 5d              pop     ebp
001982d3 c20400          ret     4
--------------------------------------------------------------------------------------
001982cf 5f              pop     edi
001982d0 5e              pop     esi
001982d1 5b              pop     ebx
001982d2 5d              pop     ebp
001982d3 c20400          ret     4
--------------------------------------------------------------------------------------
00198355 5d              pop     ebp
00198356 c3              ret
--------------------------------------------------------------------------------------
00198353 8be5            mov     esp,ebp
00198355 5d              pop     ebp
00198356 c3              ret
--------------------------------------------------------------------------------------
00198352 5b              pop     ebx
00198353 8be5            mov     esp,ebp
00198355 5d              pop     ebp
00198356 c3              ret
--------------------------------------------------------------------------------------
00198351 5e              pop     esi
00198352 5b              pop     ebx
00198353 8be5            mov     esp,ebp
00198355 5d              pop     ebp
00198356 c3              ret
--------------------------------------------------------------------------------------
0019834f 8bc6            mov     eax,esi
00198351 5e              pop     esi
00198352 5b              pop     ebx
00198353 8be5            mov     esp,ebp
00198355 5d              pop     ebp
00198356 c3              ret
--------------------------------------------------------------------------------------
001983cc d92b            fldcw   word ptr [ebx]
001983ce c3              ret
--------------------------------------------------------------------------------------
0019840d 5d              pop     ebp
0019840e c20800          ret     8
--------------------------------------------------------------------------------------
0019840b 8be5            mov     esp,ebp
0019840d 5d              pop     ebp
0019840e c20800          ret     8
--------------------------------------------------------------------------------------
0019840a 5b              pop     ebx
0019840b 8be5            mov     esp,ebp
0019840d 5d              pop     ebp
0019840e c20800          ret     8
--------------------------------------------------------------------------------------
00198409 5e              pop     esi
0019840a 5b              pop     ebx
0019840b 8be5            mov     esp,ebp
0019840d 5d              pop     ebp
0019840e c20800          ret     8
--------------------------------------------------------------------------------------
001984e4 5d              pop     ebp
001984e5 c20400          ret     4
--------------------------------------------------------------------------------------
001984e2 8be5            mov     esp,ebp
001984e4 5d              pop     ebp
001984e5 c20400          ret     4
--------------------------------------------------------------------------------------
001984e0 0000            add     byte ptr [eax],al
001984e2 8be5            mov     esp,ebp
001984e4 5d              pop     ebp
001984e5 c20400          ret     4
--------------------------------------------------------------------------------------
0019854b 5d              pop     ebp
0019854c c20c00          ret     0Ch
--------------------------------------------------------------------------------------
00198549 1900            sbb     dword ptr [eax],eax
0019854b 5d              pop     ebp
0019854c c20c00          ret     0Ch
--------------------------------------------------------------------------------------
00198547 84e2            test    dl,ah
00198549 1900            sbb     dword ptr [eax],eax
0019854b 5d              pop     ebp
0019854c c20c00          ret     0Ch
--------------------------------------------------------------------------------------
001985aa 5d              pop     ebp
001985ab c3              ret
--------------------------------------------------------------------------------------
001985a8 8be5            mov     esp,ebp
001985aa 5d              pop     ebp
001985ab c3              ret
--------------------------------------------------------------------------------------
001985a6 0000            add     byte ptr [eax],al
001985a8 8be5            mov     esp,ebp
001985aa 5d              pop     ebp
001985ab c3              ret
--------------------------------------------------------------------------------------
001985a4 d831            fdiv    dword ptr [ecx]
001985a6 0000            add     byte ptr [eax],al
001985a8 8be5            mov     esp,ebp
001985aa 5d              pop     ebp
001985ab c3              ret
--------------------------------------------------------------------------------------
001985e3 5d              pop     ebp
001985e4 c3              ret
--------------------------------------------------------------------------------------
001985e1 8be5            mov     esp,ebp
001985e3 5d              pop     ebp
001985e4 c3              ret
--------------------------------------------------------------------------------------
001985df 0000            add     byte ptr [eax],al
001985e1 8be5            mov     esp,ebp
001985e3 5d              pop     ebp
001985e4 c3              ret
--------------------------------------------------------------------------------------
0019862e 5d              pop     ebp
0019862f c21400          ret     14h
--------------------------------------------------------------------------------------
0019862d 59              pop     ecx
0019862e 5d              pop     ebp
0019862f c21400          ret     14h
--------------------------------------------------------------------------------------
0019862c 5e              pop     esi
0019862d 59              pop     ecx
0019862e 5d              pop     ebp
0019862f c21400          ret     14h
--------------------------------------------------------------------------------------
0019862a 8bc6            mov     eax,esi
0019862c 5e              pop     esi
0019862d 59              pop     ecx
0019862e 5d              pop     ebp
0019862f c21400          ret     14h
--------------------------------------------------------------------------------------
0019865f 5d              pop     ebp
00198660 c20400          ret     4
--------------------------------------------------------------------------------------
0019865e 5b              pop     ebx
0019865f 5d              pop     ebp
00198660 c20400          ret     4
--------------------------------------------------------------------------------------
0019865d 5e              pop     esi
0019865e 5b              pop     ebx
0019865f 5d              pop     ebp
00198660 c20400          ret     4
--------------------------------------------------------------------------------------
0019865c 5f              pop     edi
0019865d 5e              pop     esi
0019865e 5b              pop     ebx
0019865f 5d              pop     ebp
00198660 c20400          ret     4
--------------------------------------------------------------------------------------
0019865b 07              pop     es
0019865c 5f              pop     edi
0019865d 5e              pop     esi
0019865e 5b              pop     ebx
0019865f 5d              pop     ebp
00198660 c20400          ret     4
--------------------------------------------------------------------------------------
001987a8 5d              pop     ebp
001987a9 c3              ret
--------------------------------------------------------------------------------------
001987a6 8be5            mov     esp,ebp
001987a8 5d              pop     ebp
001987a9 c3              ret
--------------------------------------------------------------------------------------
001987a4 0000            add     byte ptr [eax],al
001987a6 8be5            mov     esp,ebp
001987a8 5d              pop     ebp
001987a9 c3              ret
--------------------------------------------------------------------------------------
001987a3 2f              das
001987a4 0000            add     byte ptr [eax],al
001987a6 8be5            mov     esp,ebp
001987a8 5d              pop     ebp
001987a9 c3              ret
--------------------------------------------------------------------------------------
001987a2 da2f            fisubr  dword ptr [edi]
001987a4 0000            add     byte ptr [eax],al
001987a6 8be5            mov     esp,ebp
001987a8 5d              pop     ebp
001987a9 c3              ret
--------------------------------------------------------------------------------------
001988aa 5d              pop     ebp
001988ab c3              ret
--------------------------------------------------------------------------------------
001988a8 8be5            mov     esp,ebp
001988aa 5d              pop     ebp
001988ab c3              ret
--------------------------------------------------------------------------------------
001988a6 0000            add     byte ptr [eax],al
001988a8 8be5            mov     esp,ebp
001988aa 5d              pop     ebp
001988ab c3              ret
--------------------------------------------------------------------------------------
001988a5 2e0000          add     byte ptr cs:[eax],al
001988a8 8be5            mov     esp,ebp
001988aa 5d              pop     ebp
001988ab c3              ret
--------------------------------------------------------------------------------------
001988a4 d82e            fsubr   dword ptr [esi]
001988a6 0000            add     byte ptr [eax],al
001988a8 8be5            mov     esp,ebp
001988aa 5d              pop     ebp
001988ab c3              ret
--------------------------------------------------------------------------------------
001988cb 5e              pop     esi
001988cc c3              ret
--------------------------------------------------------------------------------------
001989f4 5d              pop     ebp
001989f5 c20400          ret     4
--------------------------------------------------------------------------------------
001989f2 8be5            mov     esp,ebp
001989f4 5d              pop     ebp
001989f5 c20400          ret     4
--------------------------------------------------------------------------------------
001989f1 5b              pop     ebx
001989f2 8be5            mov     esp,ebp
001989f4 5d              pop     ebp
001989f5 c20400          ret     4
--------------------------------------------------------------------------------------
001989f0 5e              pop     esi
001989f1 5b              pop     ebx
001989f2 8be5            mov     esp,ebp
001989f4 5d              pop     ebp
001989f5 c20400          ret     4
--------------------------------------------------------------------------------------
00198a52 5d              pop     ebp
00198a53 c3              ret
--------------------------------------------------------------------------------------
00198a50 8be5            mov     esp,ebp
00198a52 5d              pop     ebp
00198a53 c3              ret
--------------------------------------------------------------------------------------
00198a4f 5f              pop     edi
00198a50 8be5            mov     esp,ebp
00198a52 5d              pop     ebp
00198a53 c3              ret
--------------------------------------------------------------------------------------
00198a4e 5b              pop     ebx
00198a4f 5f              pop     edi
00198a50 8be5            mov     esp,ebp
00198a52 5d              pop     ebp
00198a53 c3              ret
--------------------------------------------------------------------------------------
00198a4d 5e              pop     esi
00198a4e 5b              pop     ebx
00198a4f 5f              pop     edi
00198a50 8be5            mov     esp,ebp
00198a52 5d              pop     ebp
00198a53 c3              ret
--------------------------------------------------------------------------------------
00198a4c ca5e5b          retf    5B5Eh
--------------------------------------------------------------------------------------
00198a8e 5d              pop     ebp
00198a8f c21000          ret     10h
--------------------------------------------------------------------------------------
00198a8d 5e              pop     esi
00198a8e 5d              pop     ebp
00198a8f c21000          ret     10h
--------------------------------------------------------------------------------------
00198a8c 305e5d          xor     byte ptr [esi+5Dh],bl
00198a8f c21000          ret     10h
--------------------------------------------------------------------------------------
00198a8b 8930            mov     dword ptr [eax],esi
00198a8d 5e              pop     esi
00198a8e 5d              pop     ebp
00198a8f c21000          ret     10h
--------------------------------------------------------------------------------------
00198a8a 5f              pop     edi
00198a8b 8930            mov     dword ptr [eax],esi
00198a8d 5e              pop     esi
00198a8e 5d              pop     ebp
00198a8f c21000          ret     10h
--------------------------------------------------------------------------------------
00198b14 5d              pop     ebp
00198b15 c20800          ret     8
--------------------------------------------------------------------------------------
00198b12 8be5            mov     esp,ebp
00198b14 5d              pop     ebp
00198b15 c20800          ret     8
--------------------------------------------------------------------------------------
00198b11 5b              pop     ebx
00198b12 8be5            mov     esp,ebp
00198b14 5d              pop     ebp
00198b15 c20800          ret     8
--------------------------------------------------------------------------------------
00198b10 5e              pop     esi
00198b11 5b              pop     ebx
00198b12 8be5            mov     esp,ebp
00198b14 5d              pop     ebp
00198b15 c20800          ret     8
--------------------------------------------------------------------------------------
00198b87 5d              pop     ebp
00198b88 c20800          ret     8
--------------------------------------------------------------------------------------
00198b85 8be5            mov     esp,ebp
00198b87 5d              pop     ebp
00198b88 c20800          ret     8
--------------------------------------------------------------------------------------
00198b84 5b              pop     ebx
00198b85 8be5            mov     esp,ebp
00198b87 5d              pop     ebp
00198b88 c20800          ret     8
--------------------------------------------------------------------------------------
00198b83 5e              pop     esi
00198b84 5b              pop     ebx
00198b85 8be5            mov     esp,ebp
00198b87 5d              pop     ebp
00198b88 c20800          ret     8
--------------------------------------------------------------------------------------
00198b98 33c0            xor     eax,eax
00198b9a c22400          ret     24h
--------------------------------------------------------------------------------------
00198b96 1a00            sbb     al,byte ptr [eax]
00198b98 33c0            xor     eax,eax
00198b9a c22400          ret     24h
--------------------------------------------------------------------------------------
00198ba8 33c0            xor     eax,eax
00198baa c20c00          ret     0Ch
--------------------------------------------------------------------------------------
00198ba6 1a00            sbb     al,byte ptr [eax]
00198ba8 33c0            xor     eax,eax
00198baa c20c00          ret     0Ch
--------------------------------------------------------------------------------------
00198bb8 33c0            xor     eax,eax
00198bba c20400          ret     4
--------------------------------------------------------------------------------------
00198bb6 1a00            sbb     al,byte ptr [eax]
00198bb8 33c0            xor     eax,eax
00198bba c20400          ret     4
--------------------------------------------------------------------------------------
00198bc8 33c0            xor     eax,eax
00198bca c21800          ret     18h
--------------------------------------------------------------------------------------
00198bc6 1a00            sbb     al,byte ptr [eax]
00198bc8 33c0            xor     eax,eax
00198bca c21800          ret     18h
--------------------------------------------------------------------------------------
00198bd0 33c0            xor     eax,eax
00198bd2 c22c00          ret     2Ch
--------------------------------------------------------------------------------------
00198be0 33c0            xor     eax,eax
00198be2 c21800          ret     18h
--------------------------------------------------------------------------------------
00198bf8 33c0            xor     eax,eax
00198bfa c20800          ret     8
--------------------------------------------------------------------------------------
00198bf6 1a00            sbb     al,byte ptr [eax]
00198bf8 33c0            xor     eax,eax
00198bfa c20800          ret     8
--------------------------------------------------------------------------------------
00198c08 33c0            xor     eax,eax
00198c0a c21c00          ret     1Ch
--------------------------------------------------------------------------------------
00198c06 1a00            sbb     al,byte ptr [eax]
00198c08 33c0            xor     eax,eax
00198c0a c21c00          ret     1Ch
--------------------------------------------------------------------------------------
00198c18 33c0            xor     eax,eax
00198c1a c21000          ret     10h
--------------------------------------------------------------------------------------
00198c16 1a00            sbb     al,byte ptr [eax]
00198c18 33c0            xor     eax,eax
00198c1a c21000          ret     10h
--------------------------------------------------------------------------------------
00198c2a 33d2            xor     edx,edx
00198c2c c3              ret
--------------------------------------------------------------------------------------
00198c29 c033d2          sal     byte ptr [ebx],0D2h
00198c2c c3              ret
--------------------------------------------------------------------------------------
00198c28 33c0            xor     eax,eax
00198c2a 33d2            xor     edx,edx
00198c2c c3              ret
--------------------------------------------------------------------------------------
00198c27 0033            add     byte ptr [ebx],dh
00198c29 c033d2          sal     byte ptr [ebx],0D2h
00198c2c c3              ret
--------------------------------------------------------------------------------------
00198c26 1a00            sbb     al,byte ptr [eax]
00198c28 33c0            xor     eax,eax
00198c2a 33d2            xor     edx,edx
00198c2c c3              ret
--------------------------------------------------------------------------------------
00198c25 011a            add     dword ptr [edx],ebx
00198c27 0033            add     byte ptr [ebx],dh
00198c29 c033d2          sal     byte ptr [ebx],0D2h
00198c2c c3              ret
--------------------------------------------------------------------------------------
00198c30 83c8ff          or      eax,0FFFFFFFFh
00198c33 c20c00          ret     0Ch
--------------------------------------------------------------------------------------
00198c2c c3              ret
--------------------------------------------------------------------------------------
00198c48 33c0            xor     eax,eax
00198c4a c3              ret
--------------------------------------------------------------------------------------
00198c46 1a00            sbb     al,byte ptr [eax]
00198c48 33c0            xor     eax,eax
00198c4a c3              ret
--------------------------------------------------------------------------------------
00198c43 1568011a00      adc     eax,offset notepad!_imp__SetLastError (001a0168)
00198c48 33c0            xor     eax,eax
00198c4a c3              ret
--------------------------------------------------------------------------------------
00198c58 33c0            xor     eax,eax
00198c5a c21400          ret     14h
--------------------------------------------------------------------------------------
00198c56 1a00            sbb     al,byte ptr [eax]
00198c58 33c0            xor     eax,eax
00198c5a c21400          ret     14h
--------------------------------------------------------------------------------------
00198c60 33c0            xor     eax,eax
00198c62 c20c00          ret     0Ch
--------------------------------------------------------------------------------------
00198c70 33c0            xor     eax,eax
00198c72 c21000          ret     10h
--------------------------------------------------------------------------------------
00198d04 5d              pop     ebp
00198d05 c3              ret
--------------------------------------------------------------------------------------
00198d02 8be5            mov     esp,ebp
00198d04 5d              pop     ebp
00198d05 c3              ret
--------------------------------------------------------------------------------------
00198d01 5f              pop     edi
00198d02 8be5            mov     esp,ebp
00198d04 5d              pop     ebp
00198d05 c3              ret
--------------------------------------------------------------------------------------
00198d00 5e              pop     esi
00198d01 5f              pop     edi
00198d02 8be5            mov     esp,ebp
00198d04 5d              pop     ebp
00198d05 c3              ret
--------------------------------------------------------------------------------------
00198cff 5b              pop     ebx
00198d00 5e              pop     esi
00198d01 5f              pop     edi
00198d02 8be5            mov     esp,ebp
00198d04 5d              pop     ebp
00198d05 c3              ret
--------------------------------------------------------------------------------------
00198cfe 005b5e          add     byte ptr [ebx+5Eh],bl
00198d01 5f              pop     edi
00198d02 8be5            mov     esp,ebp
00198d04 5d              pop     ebp
00198d05 c3              ret
--------------------------------------------------------------------------------------
00198e12 dc03            fadd    qword ptr [ebx]
00198e14 c23bc8          ret     0C83Bh
--------------------------------------------------------------------------------------
00198e11 45              inc     ebp
00198e12 dc03            fadd    qword ptr [ebx]
00198e14 c23bc8          ret     0C83Bh
--------------------------------------------------------------------------------------
00198e98 00663b          add     byte ptr [esi+3Bh],ah
00198e9b c2740e          ret     0E74h
--------------------------------------------------------------------------------------
00198e96 0100            add     dword ptr [eax],eax
00198e98 00663b          add     byte ptr [esi+3Bh],ah
00198e9b c2740e          ret     0E74h
--------------------------------------------------------------------------------------
00198ea2 00663b          add     byte ptr [esi+3Bh],ah
00198ea5 c20f85          ret     850Fh
--------------------------------------------------------------------------------------
00198ea0 0200            add     al,byte ptr [eax]
00198ea2 00663b          add     byte ptr [esi+3Bh],ah
00198ea5 c20f85          ret     850Fh
--------------------------------------------------------------------------------------
00198ec7 cb              retf
--------------------------------------------------------------------------------------
00198eea db4383          fild    dword ptr [ebx-7Dh]
00198eed c20266          ret     6602h
--------------------------------------------------------------------------------------
00198f5a 5d              pop     ebp
00198f5b c20800          ret     8
--------------------------------------------------------------------------------------
00198f58 8be5            mov     esp,ebp
00198f5a 5d              pop     ebp
00198f5b c20800          ret     8
--------------------------------------------------------------------------------------
00198f57 5b              pop     ebx
00198f58 8be5            mov     esp,ebp
00198f5a 5d              pop     ebp
00198f5b c20800          ret     8
--------------------------------------------------------------------------------------
00198f56 5e              pop     esi
00198f57 5b              pop     ebx
00198f58 8be5            mov     esp,ebp
00198f5a 5d              pop     ebp
00198f5b c20800          ret     8
--------------------------------------------------------------------------------------
00198f73 01cc            add     esp,ecx
00198f75 c3              ret
--------------------------------------------------------------------------------------
00198f6e 0583f8ff75      add     eax,offset SHELL32!CMenuSFToolbar::v_GetDragOverButton+0x3 (75fff883)
00198f73 01cc            add     esp,ecx
00198f75 c3              ret
--------------------------------------------------------------------------------------
00198f8b 5e              pop     esi
00198f8c c3              ret
--------------------------------------------------------------------------------------
00198f88 832600          and     dword ptr [esi],0
00198f8b 5e              pop     esi
00198f8c c3              ret
--------------------------------------------------------------------------------------
00198f86 1a00            sbb     al,byte ptr [eax]
00198f88 832600          and     dword ptr [esi],0
00198f8b 5e              pop     esi
00198f8c c3              ret
--------------------------------------------------------------------------------------
00198fab 5e              pop     esi
00198fac c3              ret
--------------------------------------------------------------------------------------
00198fa8 832600          and     dword ptr [esi],0
00198fab 5e              pop     esi
00198fac c3              ret
--------------------------------------------------------------------------------------
00198fa6 1a00            sbb     al,byte ptr [eax]
00198fa8 832600          and     dword ptr [esi],0
00198fab 5e              pop     esi
00198fac c3              ret
--------------------------------------------------------------------------------------
00198fc2 5e              pop     esi
00198fc3 c3              ret
--------------------------------------------------------------------------------------
00198fbf 832600          and     dword ptr [esi],0
00198fc2 5e              pop     esi
00198fc3 c3              ret
--------------------------------------------------------------------------------------
00198fbd 1a00            sbb     al,byte ptr [eax]
00198fbf 832600          and     dword ptr [esi],0
00198fc2 5e              pop     esi
00198fc3 c3              ret
--------------------------------------------------------------------------------------
0019900e 5d              pop     ebp
0019900f c20400          ret     4
--------------------------------------------------------------------------------------
0019900c 8be5            mov     esp,ebp
0019900e 5d              pop     ebp
0019900f c20400          ret     4
--------------------------------------------------------------------------------------
0019900b 5e              pop     esi
0019900c 8be5            mov     esp,ebp
0019900e 5d              pop     ebp
0019900f c20400          ret     4
--------------------------------------------------------------------------------------
0019900a 5f              pop     edi
0019900b 5e              pop     esi
0019900c 8be5            mov     esp,ebp
0019900e 5d              pop     ebp
0019900f c20400          ret     4
--------------------------------------------------------------------------------------
00199032 40              inc     eax
00199033 c3              ret
--------------------------------------------------------------------------------------
00199030 33c0            xor     eax,eax
00199032 40              inc     eax
00199033 c3              ret
--------------------------------------------------------------------------------------
00199034 33c0            xor     eax,eax
00199036 c3              ret
--------------------------------------------------------------------------------------
00199033 c3              ret
--------------------------------------------------------------------------------------
00199032 40              inc     eax
00199033 c3              ret
--------------------------------------------------------------------------------------
00199030 33c0            xor     eax,eax
00199032 40              inc     eax
00199033 c3              ret
--------------------------------------------------------------------------------------
00199042 1a00            sbb     al,byte ptr [eax]
00199044 c3              ret
--------------------------------------------------------------------------------------
00199040 8803            mov     byte ptr [ebx],al
00199042 1a00            sbb     al,byte ptr [eax]
00199044 c3              ret
--------------------------------------------------------------------------------------
0019903f 1588031a00      adc     eax,offset notepad!_imp__RaiseException (001a0388)
00199044 c3              ret
--------------------------------------------------------------------------------------
001990a0 5d              pop     ebp
001990a1 c21c00          ret     1Ch
--------------------------------------------------------------------------------------
0019909e 8be5            mov     esp,ebp
001990a0 5d              pop     ebp
001990a1 c21c00          ret     1Ch
--------------------------------------------------------------------------------------
0019909c 0000            add     byte ptr [eax],al
0019909e 8be5            mov     esp,ebp
001990a0 5d              pop     ebp
001990a1 c21c00          ret     1Ch
--------------------------------------------------------------------------------------
00199100 5d              pop     ebp
00199101 c21c00          ret     1Ch
--------------------------------------------------------------------------------------
001990fe 8be5            mov     esp,ebp
00199100 5d              pop     ebp
00199101 c21c00          ret     1Ch
--------------------------------------------------------------------------------------
001990fc 0000            add     byte ptr [eax],al
001990fe 8be5            mov     esp,ebp
00199100 5d              pop     ebp
00199101 c21c00          ret     1Ch
--------------------------------------------------------------------------------------
00199160 5d              pop     ebp
00199161 c21c00          ret     1Ch
--------------------------------------------------------------------------------------
0019915e 8be5            mov     esp,ebp
00199160 5d              pop     ebp
00199161 c21c00          ret     1Ch
--------------------------------------------------------------------------------------
0019915c 0000            add     byte ptr [eax],al
0019915e 8be5            mov     esp,ebp
00199160 5d              pop     ebp
00199161 c21c00          ret     1Ch
--------------------------------------------------------------------------------------
001991b7 5d              pop     ebp
001991b8 c21000          ret     10h
--------------------------------------------------------------------------------------
001991b5 8be5            mov     esp,ebp
001991b7 5d              pop     ebp
001991b8 c21000          ret     10h
--------------------------------------------------------------------------------------
001991b3 0000            add     byte ptr [eax],al
001991b5 8be5            mov     esp,ebp
001991b7 5d              pop     ebp
001991b8 c21000          ret     10h
--------------------------------------------------------------------------------------
001991b1 cb              retf
--------------------------------------------------------------------------------------
00199202 5d              pop     ebp
00199203 c20800          ret     8
--------------------------------------------------------------------------------------
00199200 8be5            mov     esp,ebp
00199202 5d              pop     ebp
00199203 c20800          ret     8
--------------------------------------------------------------------------------------
001991fe 0000            add     byte ptr [eax],al
00199200 8be5            mov     esp,ebp
00199202 5d              pop     ebp
00199203 c20800          ret     8
--------------------------------------------------------------------------------------
00199252 5d              pop     ebp
00199253 c20800          ret     8
--------------------------------------------------------------------------------------
00199250 8be5            mov     esp,ebp
00199252 5d              pop     ebp
00199253 c20800          ret     8
--------------------------------------------------------------------------------------
0019924e 0000            add     byte ptr [eax],al
00199250 8be5            mov     esp,ebp
00199252 5d              pop     ebp
00199253 c20800          ret     8
--------------------------------------------------------------------------------------
0019927b 5d              pop     ebp
0019927c c20c00          ret     0Ch
--------------------------------------------------------------------------------------
0019927a 045d            add     al,5Dh
0019927c c20c00          ret     0Ch
--------------------------------------------------------------------------------------
00199278 c078045d        sar     byte ptr [eax+4],5Dh
0019927c c20c00          ret     0Ch
--------------------------------------------------------------------------------------
001992dd 5d              pop     ebp
001992de c3              ret
--------------------------------------------------------------------------------------
001992db 8be5            mov     esp,ebp
001992dd 5d              pop     ebp
001992de c3              ret
--------------------------------------------------------------------------------------
001992d9 0000            add     byte ptr [eax],al
001992db 8be5            mov     esp,ebp
001992dd 5d              pop     ebp
001992de c3              ret
--------------------------------------------------------------------------------------
001993f0 5d              pop     ebp
001993f1 c3              ret
--------------------------------------------------------------------------------------
001993ee 8be5            mov     esp,ebp
001993f0 5d              pop     ebp
001993f1 c3              ret
--------------------------------------------------------------------------------------
001993ec 0000            add     byte ptr [eax],al
001993ee 8be5            mov     esp,ebp
001993f0 5d              pop     ebp
001993f1 c3              ret
--------------------------------------------------------------------------------------
00199594 5d              pop     ebp
00199595 c3              ret
--------------------------------------------------------------------------------------
00199592 8be5            mov     esp,ebp
00199594 5d              pop     ebp
00199595 c3              ret
--------------------------------------------------------------------------------------
00199590 0000            add     byte ptr [eax],al
00199592 8be5            mov     esp,ebp
00199594 5d              pop     ebp
00199595 c3              ret
--------------------------------------------------------------------------------------
001995ab 0c8b            or      al,8Bh
001995ad c2568b          ret     8B56h
--------------------------------------------------------------------------------------
001995aa 5d              pop     ebp
001995ab 0c8b            or      al,8Bh
001995ad c2568b          ret     8B56h
--------------------------------------------------------------------------------------
00199739 5d              pop     ebp
0019973a c20800          ret     8
--------------------------------------------------------------------------------------
00199737 8be5            mov     esp,ebp
00199739 5d              pop     ebp
0019973a c20800          ret     8
--------------------------------------------------------------------------------------
00199735 0000            add     byte ptr [eax],al
00199737 8be5            mov     esp,ebp
00199739 5d              pop     ebp
0019973a c20800          ret     8
--------------------------------------------------------------------------------------
001997ca 5d              pop     ebp
001997cb c3              ret
--------------------------------------------------------------------------------------
001997c8 8be5            mov     esp,ebp
001997ca 5d              pop     ebp
001997cb c3              ret
--------------------------------------------------------------------------------------
001997c6 0000            add     byte ptr [eax],al
001997c8 8be5            mov     esp,ebp
001997ca 5d              pop     ebp
001997cb c3              ret
--------------------------------------------------------------------------------------
001997c5 1f              pop     ds
001997c6 0000            add     byte ptr [eax],al
001997c8 8be5            mov     esp,ebp
001997ca 5d              pop     ebp
001997cb c3              ret
--------------------------------------------------------------------------------------
0019984f 5d              pop     ebp
00199850 c3              ret
--------------------------------------------------------------------------------------
0019984d 8be5            mov     esp,ebp
0019984f 5d              pop     ebp
00199850 c3              ret
--------------------------------------------------------------------------------------
0019984b 0000            add     byte ptr [eax],al
0019984d 8be5            mov     esp,ebp
0019984f 5d              pop     ebp
00199850 c3              ret
--------------------------------------------------------------------------------------
0019984a 1f              pop     ds
0019984b 0000            add     byte ptr [eax],al
0019984d 8be5            mov     esp,ebp
0019984f 5d              pop     ebp
00199850 c3              ret
--------------------------------------------------------------------------------------
00199849 331f            xor     ebx,dword ptr [edi]
0019984b 0000            add     byte ptr [eax],al
0019984d 8be5            mov     esp,ebp
0019984f 5d              pop     ebp
00199850 c3              ret
--------------------------------------------------------------------------------------
001999af 95              xchg    eax,ebp
001999b0 c3              ret
--------------------------------------------------------------------------------------
001999ad 030f            add     ecx,dword ptr [edi]
001999af 95              xchg    eax,ebp
001999b0 c3              ret
--------------------------------------------------------------------------------------
001999a9 db837db4030f    fild    dword ptr [ebx+0F03B47Dh]
001999af 95              xchg    eax,ebp
001999b0 c3              ret
--------------------------------------------------------------------------------------
00199a57 5d              pop     ebp
00199a58 c3              ret
--------------------------------------------------------------------------------------
00199a55 8be5            mov     esp,ebp
00199a57 5d              pop     ebp
00199a58 c3              ret
--------------------------------------------------------------------------------------
00199a53 0000            add     byte ptr [eax],al
00199a55 8be5            mov     esp,ebp
00199a57 5d              pop     ebp
00199a58 c3              ret
--------------------------------------------------------------------------------------
00199a52 1d00008be5      sbb     eax,0E58B0000h
00199a57 5d              pop     ebp
00199a58 c3              ret
--------------------------------------------------------------------------------------
00199a51 2b1d00008be5    sub     ebx,dword ptr ds:[0E58B0000h]
00199a57 5d              pop     ebp
00199a58 c3              ret
--------------------------------------------------------------------------------------
00199baa 5d              pop     ebp
00199bab c20400          ret     4
--------------------------------------------------------------------------------------
00199ba8 8be5            mov     esp,ebp
00199baa 5d              pop     ebp
00199bab c20400          ret     4
--------------------------------------------------------------------------------------
00199ba6 0000            add     byte ptr [eax],al
00199ba8 8be5            mov     esp,ebp
00199baa 5d              pop     ebp
00199bab c20400          ret     4
--------------------------------------------------------------------------------------
00199de0 5d              pop     ebp
00199de1 c3              ret
--------------------------------------------------------------------------------------
00199dde 8be5            mov     esp,ebp
00199de0 5d              pop     ebp
00199de1 c3              ret
--------------------------------------------------------------------------------------
00199ddc 0000            add     byte ptr [eax],al
00199dde 8be5            mov     esp,ebp
00199de0 5d              pop     ebp
00199de1 c3              ret
--------------------------------------------------------------------------------------
00199e16 02663b          add     ah,byte ptr [esi+3Bh]
00199e19 c275f5          ret     0F575h
--------------------------------------------------------------------------------------
00199f45 5d              pop     ebp
00199f46 c20400          ret     4
--------------------------------------------------------------------------------------
00199f43 8be5            mov     esp,ebp
00199f45 5d              pop     ebp
00199f46 c20400          ret     4
--------------------------------------------------------------------------------------
00199f41 0000            add     byte ptr [eax],al
00199f43 8be5            mov     esp,ebp
00199f45 5d              pop     ebp
00199f46 c20400          ret     4
--------------------------------------------------------------------------------------
0019a063 5d              pop     ebp
0019a064 c20800          ret     8
--------------------------------------------------------------------------------------
0019a061 8be5            mov     esp,ebp
0019a063 5d              pop     ebp
0019a064 c20800          ret     8
--------------------------------------------------------------------------------------
0019a05f 0000            add     byte ptr [eax],al
0019a061 8be5            mov     esp,ebp
0019a063 5d              pop     ebp
0019a064 c20800          ret     8
--------------------------------------------------------------------------------------
0019a11a 5d              pop     ebp
0019a11b c20800          ret     8
--------------------------------------------------------------------------------------
0019a118 8be5            mov     esp,ebp
0019a11a 5d              pop     ebp
0019a11b c20800          ret     8
--------------------------------------------------------------------------------------
0019a116 0000            add     byte ptr [eax],al
0019a118 8be5            mov     esp,ebp
0019a11a 5d              pop     ebp
0019a11b c20800          ret     8
--------------------------------------------------------------------------------------
0019a191 5d              pop     ebp
0019a192 c3              ret
--------------------------------------------------------------------------------------
0019a190 59              pop     ecx
0019a191 5d              pop     ebp
0019a192 c3              ret
--------------------------------------------------------------------------------------
0019a18f 5b              pop     ebx
0019a190 59              pop     ecx
0019a191 5d              pop     ebp
0019a192 c3              ret
--------------------------------------------------------------------------------------
0019a18e 5e              pop     esi
0019a18f 5b              pop     ebx
0019a190 59              pop     ecx
0019a191 5d              pop     ebp
0019a192 c3              ret
--------------------------------------------------------------------------------------
0019a18d 5f              pop     edi
0019a18e 5e              pop     esi
0019a18f 5b              pop     ebx
0019a190 59              pop     ecx
0019a191 5d              pop     ebp
0019a192 c3              ret
--------------------------------------------------------------------------------------
0019a18c c05f5e5b        rcr     byte ptr [edi+5Eh],5Bh
0019a190 59              pop     ecx
0019a191 5d              pop     ebp
0019a192 c3              ret
--------------------------------------------------------------------------------------
0019a18b 33c0            xor     eax,eax
0019a18d 5f              pop     edi
0019a18e 5e              pop     esi
0019a18f 5b              pop     ebx
0019a190 59              pop     ecx
0019a191 5d              pop     ebp
0019a192 c3              ret
--------------------------------------------------------------------------------------
0019a204 5d              pop     ebp
0019a205 c3              ret
--------------------------------------------------------------------------------------
0019a202 8be5            mov     esp,ebp
0019a204 5d              pop     ebp
0019a205 c3              ret
--------------------------------------------------------------------------------------
0019a200 0000            add     byte ptr [eax],al
0019a202 8be5            mov     esp,ebp
0019a204 5d              pop     ebp
0019a205 c3              ret
--------------------------------------------------------------------------------------
0019a1ff 1500008be5      adc     eax,0E58B0000h
0019a204 5d              pop     ebp
0019a205 c3              ret
--------------------------------------------------------------------------------------
0019a307 5d              pop     ebp
0019a308 c3              ret
--------------------------------------------------------------------------------------
0019a305 8be5            mov     esp,ebp
0019a307 5d              pop     ebp
0019a308 c3              ret
--------------------------------------------------------------------------------------
0019a303 0000            add     byte ptr [eax],al
0019a305 8be5            mov     esp,ebp
0019a307 5d              pop     ebp
0019a308 c3              ret
--------------------------------------------------------------------------------------
0019a38e 5d              pop     ebp
0019a38f c20800          ret     8
--------------------------------------------------------------------------------------
0019a38c 8be5            mov     esp,ebp
0019a38e 5d              pop     ebp
0019a38f c20800          ret     8
--------------------------------------------------------------------------------------
0019a38a 0000            add     byte ptr [eax],al
0019a38c 8be5            mov     esp,ebp
0019a38e 5d              pop     ebp
0019a38f c20800          ret     8
--------------------------------------------------------------------------------------
0019a401 dc2b            fsubr   qword ptr [ebx]
0019a403 c3              ret
--------------------------------------------------------------------------------------
0019a400 45              inc     ebp
0019a401 dc2b            fsubr   qword ptr [ebx]
0019a403 c3              ret
--------------------------------------------------------------------------------------
0019a3fc c078238b        sar     byte ptr [eax+23h],8Bh
0019a400 45              inc     ebp
0019a401 dc2b            fsubr   qword ptr [ebx]
0019a403 c3              ret
--------------------------------------------------------------------------------------
0019a43e 5d              pop     ebp
0019a43f c3              ret
--------------------------------------------------------------------------------------
0019a43c 8be5            mov     esp,ebp
0019a43e 5d              pop     ebp
0019a43f c3              ret
--------------------------------------------------------------------------------------
0019a43a 0000            add     byte ptr [eax],al
0019a43c 8be5            mov     esp,ebp
0019a43e 5d              pop     ebp
0019a43f c3              ret
--------------------------------------------------------------------------------------
0019a472 5b              pop     ebx
0019a473 c3              ret
--------------------------------------------------------------------------------------
0019a471 5e              pop     esi
0019a472 5b              pop     ebx
0019a473 c3              ret
--------------------------------------------------------------------------------------
0019a470 5f              pop     edi
0019a471 5e              pop     esi
0019a472 5b              pop     ebx
0019a473 c3              ret
--------------------------------------------------------------------------------------
0019a46f 005f5e          add     byte ptr [edi+5Eh],bl
0019a472 5b              pop     ebx
0019a473 c3              ret
--------------------------------------------------------------------------------------
0019a46e 1a00            sbb     al,byte ptr [eax]
0019a470 5f              pop     edi
0019a471 5e              pop     esi
0019a472 5b              pop     ebx
0019a473 c3              ret
--------------------------------------------------------------------------------------
0019a46d 031a            add     ebx,dword ptr [edx]
0019a46f 005f5e          add     byte ptr [edi+5Eh],bl
0019a472 5b              pop     ebx
0019a473 c3              ret
--------------------------------------------------------------------------------------
0019a46c 64031a          add     ebx,dword ptr fs:[edx]
0019a46f 005f5e          add     byte ptr [edi+5Eh],bl
0019a472 5b              pop     ebx
0019a473 c3              ret
--------------------------------------------------------------------------------------
0019a48f 0283c202663b    add     al,byte ptr [ebx+3B6602C2h]
0019a495 c3              ret
--------------------------------------------------------------------------------------
0019a492 02663b          add     ah,byte ptr [esi+3Bh]
0019a495 c3              ret
--------------------------------------------------------------------------------------
0019a491 c20266          ret     6602h
--------------------------------------------------------------------------------------
0019a48f 0283c202663b    add     al,byte ptr [ebx+3B6602C2h]
0019a495 c3              ret
--------------------------------------------------------------------------------------
0019a49e 013b            add     dword ptr [ebx],edi
0019a4a0 c27213          ret     1372h
--------------------------------------------------------------------------------------
0019a49d 42              inc     edx
0019a49e 013b            add     dword ptr [ebx],edi
0019a4a0 c27213          ret     1372h
--------------------------------------------------------------------------------------
0019a4b2 5d              pop     ebp
0019a4b3 c20800          ret     8
--------------------------------------------------------------------------------------
0019a4b1 5b              pop     ebx
0019a4b2 5d              pop     ebp
0019a4b3 c20800          ret     8
--------------------------------------------------------------------------------------
0019a4b0 5e              pop     esi
0019a4b1 5b              pop     ebx
0019a4b2 5d              pop     ebp
0019a4b3 c20800          ret     8
--------------------------------------------------------------------------------------
0019a4ae 8bc6            mov     eax,esi
0019a4b0 5e              pop     esi
0019a4b1 5b              pop     ebx
0019a4b2 5d              pop     ebp
0019a4b3 c20800          ret     8
--------------------------------------------------------------------------------------
0019a518 5d              pop     ebp
0019a519 c20400          ret     4
--------------------------------------------------------------------------------------
0019a516 8be5            mov     esp,ebp
0019a518 5d              pop     ebp
0019a519 c20400          ret     4
--------------------------------------------------------------------------------------
0019a514 0000            add     byte ptr [eax],al
0019a516 8be5            mov     esp,ebp
0019a518 5d              pop     ebp
0019a519 c20400          ret     4
--------------------------------------------------------------------------------------
0019a569 5d              pop     ebp
0019a56a c20400          ret     4
--------------------------------------------------------------------------------------
0019a567 8be5            mov     esp,ebp
0019a569 5d              pop     ebp
0019a56a c20400          ret     4
--------------------------------------------------------------------------------------
0019a565 0000            add     byte ptr [eax],al
0019a567 8be5            mov     esp,ebp
0019a569 5d              pop     ebp
0019a56a c20400          ret     4
--------------------------------------------------------------------------------------
0019a5ba 5d              pop     ebp
0019a5bb c20400          ret     4
--------------------------------------------------------------------------------------
0019a5b8 8be5            mov     esp,ebp
0019a5ba 5d              pop     ebp
0019a5bb c20400          ret     4
--------------------------------------------------------------------------------------
0019a5b6 0000            add     byte ptr [eax],al
0019a5b8 8be5            mov     esp,ebp
0019a5ba 5d              pop     ebp
0019a5bb c20400          ret     4
--------------------------------------------------------------------------------------
0019a5f7 5d              pop     ebp
0019a5f8 c3              ret
--------------------------------------------------------------------------------------
0019a5f5 8be5            mov     esp,ebp
0019a5f7 5d              pop     ebp
0019a5f8 c3              ret
--------------------------------------------------------------------------------------
0019a5f3 0000            add     byte ptr [eax],al
0019a5f5 8be5            mov     esp,ebp
0019a5f7 5d              pop     ebp
0019a5f8 c3              ret
--------------------------------------------------------------------------------------
0019a5f1 8b11            mov     edx,dword ptr [ecx]
0019a5f3 0000            add     byte ptr [eax],al
0019a5f5 8be5            mov     esp,ebp
0019a5f7 5d              pop     ebp
0019a5f8 c3              ret
--------------------------------------------------------------------------------------
0019a677 5d              pop     ebp
0019a678 c3              ret
--------------------------------------------------------------------------------------
0019a675 8be5            mov     esp,ebp
0019a677 5d              pop     ebp
0019a678 c3              ret
--------------------------------------------------------------------------------------
0019a673 0000            add     byte ptr [eax],al
0019a675 8be5            mov     esp,ebp
0019a677 5d              pop     ebp
0019a678 c3              ret
--------------------------------------------------------------------------------------
0019a671 0b11            or      edx,dword ptr [ecx]
0019a673 0000            add     byte ptr [eax],al
0019a675 8be5            mov     esp,ebp
0019a677 5d              pop     ebp
0019a678 c3              ret
--------------------------------------------------------------------------------------
0019a6b7 5d              pop     ebp
0019a6b8 c20400          ret     4
--------------------------------------------------------------------------------------
0019a6b5 8be5            mov     esp,ebp
0019a6b7 5d              pop     ebp
0019a6b8 c20400          ret     4
--------------------------------------------------------------------------------------
0019a6b3 0000            add     byte ptr [eax],al
0019a6b5 8be5            mov     esp,ebp
0019a6b7 5d              pop     ebp
0019a6b8 c20400          ret     4
--------------------------------------------------------------------------------------
0019a6b1 cb              retf
--------------------------------------------------------------------------------------
0019a722 5d              pop     ebp
0019a723 c20400          ret     4
--------------------------------------------------------------------------------------
0019a720 8be5            mov     esp,ebp
0019a722 5d              pop     ebp
0019a723 c20400          ret     4
--------------------------------------------------------------------------------------
0019a71e 0000            add     byte ptr [eax],al
0019a720 8be5            mov     esp,ebp
0019a722 5d              pop     ebp
0019a723 c20400          ret     4
--------------------------------------------------------------------------------------
0019a7af 5d              pop     ebp
0019a7b0 c20c00          ret     0Ch
--------------------------------------------------------------------------------------
0019a7ad 8be5            mov     esp,ebp
0019a7af 5d              pop     ebp
0019a7b0 c20c00          ret     0Ch
--------------------------------------------------------------------------------------
0019a7ab 0000            add     byte ptr [eax],al
0019a7ad 8be5            mov     esp,ebp
0019a7af 5d              pop     ebp
0019a7b0 c20c00          ret     0Ch
--------------------------------------------------------------------------------------
0019a7f0 5d              pop     ebp
0019a7f1 c20c00          ret     0Ch
--------------------------------------------------------------------------------------
0019a7ee 8be5            mov     esp,ebp
0019a7f0 5d              pop     ebp
0019a7f1 c20c00          ret     0Ch
--------------------------------------------------------------------------------------
0019a7ec 0000            add     byte ptr [eax],al
0019a7ee 8be5            mov     esp,ebp
0019a7f0 5d              pop     ebp
0019a7f1 c20c00          ret     0Ch
--------------------------------------------------------------------------------------
0019a87f 5d              pop     ebp
0019a880 c20c00          ret     0Ch
--------------------------------------------------------------------------------------
0019a87d 8be5            mov     esp,ebp
0019a87f 5d              pop     ebp
0019a880 c20c00          ret     0Ch
--------------------------------------------------------------------------------------
0019a87b 0000            add     byte ptr [eax],al
0019a87d 8be5            mov     esp,ebp
0019a87f 5d              pop     ebp
0019a880 c20c00          ret     0Ch
--------------------------------------------------------------------------------------
0019a8b5 5d              pop     ebp
0019a8b6 c20c00          ret     0Ch
--------------------------------------------------------------------------------------
0019a8b4 5e              pop     esi
0019a8b5 5d              pop     ebp
0019a8b6 c20c00          ret     0Ch
--------------------------------------------------------------------------------------
0019a8b2 8bc6            mov     eax,esi
0019a8b4 5e              pop     esi
0019a8b5 5d              pop     ebp
0019a8b6 c20c00          ret     0Ch
--------------------------------------------------------------------------------------
0019a8f6 5d              pop     ebp
0019a8f7 c20c00          ret     0Ch
--------------------------------------------------------------------------------------
0019a8f5 5e              pop     esi
0019a8f6 5d              pop     ebp
0019a8f7 c20c00          ret     0Ch
--------------------------------------------------------------------------------------
0019aa8c 5d              pop     ebp
0019aa8d c20400          ret     4
--------------------------------------------------------------------------------------
0019aa8a 8be5            mov     esp,ebp
0019aa8c 5d              pop     ebp
0019aa8d c20400          ret     4
--------------------------------------------------------------------------------------
0019aa88 0000            add     byte ptr [eax],al
0019aa8a 8be5            mov     esp,ebp
0019aa8c 5d              pop     ebp
0019aa8d c20400          ret     4
--------------------------------------------------------------------------------------
0019ab07 5d              pop     ebp
0019ab08 c3              ret
--------------------------------------------------------------------------------------
0019ab05 8be5            mov     esp,ebp
0019ab07 5d              pop     ebp
0019ab08 c3              ret
--------------------------------------------------------------------------------------
0019ab03 0000            add     byte ptr [eax],al
0019ab05 8be5            mov     esp,ebp
0019ab07 5d              pop     ebp
0019ab08 c3              ret
--------------------------------------------------------------------------------------
0019ab29 5d              pop     ebp
0019ab2a c20c00          ret     0Ch
--------------------------------------------------------------------------------------
0019ab27 33c0            xor     eax,eax
0019ab29 5d              pop     ebp
0019ab2a c20c00          ret     0Ch
--------------------------------------------------------------------------------------
0019ab25 1a00            sbb     al,byte ptr [eax]
0019ab27 33c0            xor     eax,eax
0019ab29 5d              pop     ebp
0019ab2a c20c00          ret     0Ch
--------------------------------------------------------------------------------------
0019acbf 5d              pop     ebp
0019acc0 c20400          ret     4
--------------------------------------------------------------------------------------
0019acbd 8be5            mov     esp,ebp
0019acbf 5d              pop     ebp
0019acc0 c20400          ret     4
--------------------------------------------------------------------------------------
0019acbb 0000            add     byte ptr [eax],al
0019acbd 8be5            mov     esp,ebp
0019acbf 5d              pop     ebp
0019acc0 c20400          ret     4
--------------------------------------------------------------------------------------
0019acb9 c3              ret
--------------------------------------------------------------------------------------
0019ad3a 5d              pop     ebp
0019ad3b c3              ret
--------------------------------------------------------------------------------------
0019ad38 8be5            mov     esp,ebp
0019ad3a 5d              pop     ebp
0019ad3b c3              ret
--------------------------------------------------------------------------------------
0019ad36 0000            add     byte ptr [eax],al
0019ad38 8be5            mov     esp,ebp
0019ad3a 5d              pop     ebp
0019ad3b c3              ret
--------------------------------------------------------------------------------------
0019ad7f 5d              pop     ebp
0019ad80 c20400          ret     4
--------------------------------------------------------------------------------------
0019ad7e 5e              pop     esi
0019ad7f 5d              pop     ebp
0019ad80 c20400          ret     4
--------------------------------------------------------------------------------------
0019ad7d 5f              pop     edi
0019ad7e 5e              pop     esi
0019ad7f 5d              pop     ebp
0019ad80 c20400          ret     4
--------------------------------------------------------------------------------------
0019ad7b 8bc7            mov     eax,edi
0019ad7d 5f              pop     edi
0019ad7e 5e              pop     esi
0019ad7f 5d              pop     ebp
0019ad80 c20400          ret     4
--------------------------------------------------------------------------------------
0019adcf 5d              pop     ebp
0019add0 c20400          ret     4
--------------------------------------------------------------------------------------
0019adce 5e              pop     esi
0019adcf 5d              pop     ebp
0019add0 c20400          ret     4
--------------------------------------------------------------------------------------
0019adcd 5f              pop     edi
0019adce 5e              pop     esi
0019adcf 5d              pop     ebp
0019add0 c20400          ret     4
--------------------------------------------------------------------------------------
0019adcb 8bc7            mov     eax,edi
0019adcd 5f              pop     edi
0019adce 5e              pop     esi
0019adcf 5d              pop     ebp
0019add0 c20400          ret     4
--------------------------------------------------------------------------------------
0019ae42 5d              pop     ebp
0019ae43 c20400          ret     4
--------------------------------------------------------------------------------------
0019ae40 8be5            mov     esp,ebp
0019ae42 5d              pop     ebp
0019ae43 c20400          ret     4
--------------------------------------------------------------------------------------
0019ae3e 0000            add     byte ptr [eax],al
0019ae40 8be5            mov     esp,ebp
0019ae42 5d              pop     ebp
0019ae43 c20400          ret     4
--------------------------------------------------------------------------------------
0019ae61 5d              pop     ebp
0019ae62 c20400          ret     4
--------------------------------------------------------------------------------------
0019ae60 40              inc     eax
0019ae61 5d              pop     ebp
0019ae62 c20400          ret     4
--------------------------------------------------------------------------------------
0019ae5f 1c40            sbb     al,40h
0019ae61 5d              pop     ebp
0019ae62 c20400          ret     4
--------------------------------------------------------------------------------------
0019ae5e 41              inc     ecx
0019ae5f 1c40            sbb     al,40h
0019ae61 5d              pop     ebp
0019ae62 c20400          ret     4
--------------------------------------------------------------------------------------
0019ae5d c1411c40        rol     dword ptr [ecx+1Ch],40h
0019ae61 5d              pop     ebp
0019ae62 c20400          ret     4
--------------------------------------------------------------------------------------
0019aeef 5d              pop     ebp
0019aef0 c20c00          ret     0Ch
--------------------------------------------------------------------------------------
0019aeed 8be5            mov     esp,ebp
0019aeef 5d              pop     ebp
0019aef0 c20c00          ret     0Ch
--------------------------------------------------------------------------------------
0019aeeb 0000            add     byte ptr [eax],al
0019aeed 8be5            mov     esp,ebp
0019aeef 5d              pop     ebp
0019aef0 c20c00          ret     0Ch
--------------------------------------------------------------------------------------
0019af7f 5d              pop     ebp
0019af80 c20c00          ret     0Ch
--------------------------------------------------------------------------------------
0019af7d 8be5            mov     esp,ebp
0019af7f 5d              pop     ebp
0019af80 c20c00          ret     0Ch
--------------------------------------------------------------------------------------
0019af7b 0000            add     byte ptr [eax],al
0019af7d 8be5            mov     esp,ebp
0019af7f 5d              pop     ebp
0019af80 c20c00          ret     0Ch
--------------------------------------------------------------------------------------
0019affa 5d              pop     ebp
0019affb c20400          ret     4
--------------------------------------------------------------------------------------
0019aff8 8be5            mov     esp,ebp
0019affa 5d              pop     ebp
0019affb c20400          ret     4
--------------------------------------------------------------------------------------
0019aff6 0000            add     byte ptr [eax],al
0019aff8 8be5            mov     esp,ebp
0019affa 5d              pop     ebp
0019affb c20400          ret     4
--------------------------------------------------------------------------------------
0019b027 5d              pop     ebp
0019b028 c20400          ret     4
--------------------------------------------------------------------------------------
0019b026 5e              pop     esi
0019b027 5d              pop     ebp
0019b028 c20400          ret     4
--------------------------------------------------------------------------------------
0019b024 8bc6            mov     eax,esi
0019b026 5e              pop     esi
0019b027 5d              pop     ebp
0019b028 c20400          ret     4
--------------------------------------------------------------------------------------
0019b023 59              pop     ecx
0019b024 8bc6            mov     eax,esi
0019b026 5e              pop     esi
0019b027 5d              pop     ebp
0019b028 c20400          ret     4
--------------------------------------------------------------------------------------
0019b04f 5d              pop     ebp
0019b050 c20400          ret     4
--------------------------------------------------------------------------------------
0019b04e 5e              pop     esi
0019b04f 5d              pop     ebp
0019b050 c20400          ret     4
--------------------------------------------------------------------------------------
0019b04c 8bc6            mov     eax,esi
0019b04e 5e              pop     esi
0019b04f 5d              pop     ebp
0019b050 c20400          ret     4
--------------------------------------------------------------------------------------
0019b04b 59              pop     ecx
0019b04c 8bc6            mov     eax,esi
0019b04e 5e              pop     esi
0019b04f 5d              pop     ebp
0019b050 c20400          ret     4
--------------------------------------------------------------------------------------
0019b08c 5d              pop     ebp
0019b08d c20400          ret     4
--------------------------------------------------------------------------------------
0019b08b 5e              pop     esi
0019b08c 5d              pop     ebp
0019b08d c20400          ret     4
--------------------------------------------------------------------------------------
0019b089 8bc6            mov     eax,esi
0019b08b 5e              pop     esi
0019b08c 5d              pop     ebp
0019b08d c20400          ret     4
--------------------------------------------------------------------------------------
0019b088 59              pop     ecx
0019b089 8bc6            mov     eax,esi
0019b08b 5e              pop     esi
0019b08c 5d              pop     ebp
0019b08d c20400          ret     4
--------------------------------------------------------------------------------------
0019b139 5d              pop     ebp
0019b13a c3              ret
--------------------------------------------------------------------------------------
0019b137 8be5            mov     esp,ebp
0019b139 5d              pop     ebp
0019b13a c3              ret
--------------------------------------------------------------------------------------
0019b135 0000            add     byte ptr [eax],al
0019b137 8be5            mov     esp,ebp
0019b139 5d              pop     ebp
0019b13a c3              ret
--------------------------------------------------------------------------------------
0019b134 06              push    es
0019b135 0000            add     byte ptr [eax],al
0019b137 8be5            mov     esp,ebp
0019b139 5d              pop     ebp
0019b13a c3              ret
--------------------------------------------------------------------------------------
0019b133 49              dec     ecx
0019b134 06              push    es
0019b135 0000            add     byte ptr [eax],al
0019b137 8be5            mov     esp,ebp
0019b139 5d              pop     ebp
0019b13a c3              ret
--------------------------------------------------------------------------------------
0019b1e4 5d              pop     ebp
0019b1e5 c3              ret
--------------------------------------------------------------------------------------
0019b1e2 8be5            mov     esp,ebp
0019b1e4 5d              pop     ebp
0019b1e5 c3              ret
--------------------------------------------------------------------------------------
0019b1e0 0000            add     byte ptr [eax],al
0019b1e2 8be5            mov     esp,ebp
0019b1e4 5d              pop     ebp
0019b1e5 c3              ret
--------------------------------------------------------------------------------------
0019b1df 0500008be5      add     eax,0E58B0000h
0019b1e4 5d              pop     ebp
0019b1e5 c3              ret
--------------------------------------------------------------------------------------
0019b1de 9e              sahf
0019b1df 0500008be5      add     eax,0E58B0000h
0019b1e4 5d              pop     ebp
0019b1e5 c3              ret
--------------------------------------------------------------------------------------
0019b437 5d              pop     ebp
0019b438 c3              ret
--------------------------------------------------------------------------------------
0019b435 8be5            mov     esp,ebp
0019b437 5d              pop     ebp
0019b438 c3              ret
--------------------------------------------------------------------------------------
0019b433 0000            add     byte ptr [eax],al
0019b435 8be5            mov     esp,ebp
0019b437 5d              pop     ebp
0019b438 c3              ret
--------------------------------------------------------------------------------------
0019b4fe 33c0            xor     eax,eax
0019b500 c3              ret
--------------------------------------------------------------------------------------
0019b4fc 0000            add     byte ptr [eax],al
0019b4fe 33c0            xor     eax,eax
0019b500 c3              ret
--------------------------------------------------------------------------------------
0019b540 1900            sbb     dword ptr [eax],eax
0019b542 c3              ret
--------------------------------------------------------------------------------------
0019b53f d7              xlat    byte ptr [ebx]
0019b540 1900            sbb     dword ptr [eax],eax
0019b542 c3              ret
--------------------------------------------------------------------------------------
0019b53d a3f4d71900      mov     dword ptr [notepad!g_header_init_InitializeResultHeader+0x1b (0019d7f4)],eax
0019b542 c3              ret
--------------------------------------------------------------------------------------
0019b6f0 59              pop     ecx
0019b6f1 c3              ret
--------------------------------------------------------------------------------------
0019b6ef 59              pop     ecx
0019b6f0 59              pop     ecx
0019b6f1 c3              ret
--------------------------------------------------------------------------------------
0019b6ee 005959          add     byte ptr [ecx+59h],bl
0019b6f1 c3              ret
--------------------------------------------------------------------------------------
0019b6ed 0000            add     byte ptr [eax],al
0019b6ef 59              pop     ecx
0019b6f0 59              pop     ecx
0019b6f1 c3              ret
--------------------------------------------------------------------------------------
0019b6ec 0300            add     eax,dword ptr [eax]
0019b6ee 005959          add     byte ptr [ecx+59h],bl
0019b6f1 c3              ret
--------------------------------------------------------------------------------------
0019b6eb df03            fild    word ptr [ebx]
0019b6ed 0000            add     byte ptr [eax],al
0019b6ef 59              pop     ecx
0019b6f0 59              pop     ecx
0019b6f1 c3              ret
--------------------------------------------------------------------------------------
0019b72b 0000            add     byte ptr [eax],al
0019b72d c3              ret
--------------------------------------------------------------------------------------
0019b72a 06              push    es
0019b72b 0000            add     byte ptr [eax],al
0019b72d c3              ret
--------------------------------------------------------------------------------------
0019b729 ab              stos    dword ptr es:[edi]
0019b72a 06              push    es
0019b72b 0000            add     byte ptr [eax],al
0019b72d c3              ret
--------------------------------------------------------------------------------------
0019b774 5d              pop     ebp
0019b775 c3              ret
--------------------------------------------------------------------------------------
0019b772 8be5            mov     esp,ebp
0019b774 5d              pop     ebp
0019b775 c3              ret
--------------------------------------------------------------------------------------
0019b770 0000            add     byte ptr [eax],al
0019b772 8be5            mov     esp,ebp
0019b774 5d              pop     ebp
0019b775 c3              ret
--------------------------------------------------------------------------------------
0019b785 007503          add     byte ptr [ebp+3],dh
0019b788 c20000          ret     0
--------------------------------------------------------------------------------------
0019b783 d119            rcr     dword ptr [ecx],1
0019b785 007503          add     byte ptr [ebp+3],dh
0019b788 c20000          ret     0
--------------------------------------------------------------------------------------
0019b7b8 5d              pop     ebp
0019b7b9 c3              ret
--------------------------------------------------------------------------------------
0019b7b6 1a00            sbb     al,byte ptr [eax]
0019b7b8 5d              pop     ebp
0019b7b9 c3              ret
--------------------------------------------------------------------------------------
0019b7b3 159c031a00      adc     eax,offset notepad!_imp__TerminateProcess (001a039c)
0019b7b8 5d              pop     ebp
0019b7b9 c3              ret
--------------------------------------------------------------------------------------
0019b8c8 5d              pop     ebp
0019b8c9 c3              ret
--------------------------------------------------------------------------------------
0019b8c6 8be5            mov     esp,ebp
0019b8c8 5d              pop     ebp
0019b8c9 c3              ret
--------------------------------------------------------------------------------------
0019b8c2 cafeff          retf    0FFFEh
--------------------------------------------------------------------------------------
0019b982 5d              pop     ebp
0019b983 c3              ret
--------------------------------------------------------------------------------------
0019b9b3 5d              pop     ebp
0019b9b4 c3              ret
--------------------------------------------------------------------------------------
0019b9b1 c418            les     ebx,fword ptr [eax]
0019b9b3 5d              pop     ebp
0019b9b4 c3              ret
--------------------------------------------------------------------------------------
0019b9b0 83c418          add     esp,18h
0019b9b3 5d              pop     ebp
0019b9b4 c3              ret
--------------------------------------------------------------------------------------
0019b9ae 0000            add     byte ptr [eax],al
0019b9b0 83c418          add     esp,18h
0019b9b3 5d              pop     ebp
0019b9b4 c3              ret
--------------------------------------------------------------------------------------
0019ba3f 0000            add     byte ptr [eax],al
0019ba41 c3              ret
--------------------------------------------------------------------------------------
0019ba4c 59              pop     ecx
0019ba4d c3              ret
--------------------------------------------------------------------------------------
0019ba4a 0000            add     byte ptr [eax],al
0019ba4c 59              pop     ecx
0019ba4d c3              ret
--------------------------------------------------------------------------------------
0019ba48 b103            mov     cl,3
0019ba4a 0000            add     byte ptr [eax],al
0019ba4c 59              pop     ecx
0019ba4d c3              ret
--------------------------------------------------------------------------------------
0019ba46 08e8            or      al,ch
0019ba48 b103            mov     cl,3
0019ba4a 0000            add     byte ptr [eax],al
0019ba4c 59              pop     ecx
0019ba4d c3              ret
--------------------------------------------------------------------------------------
0019ba63 5d              pop     ebp
0019ba64 c3              ret
--------------------------------------------------------------------------------------
0019ba62 48              dec     eax
0019ba63 5d              pop     ebp
0019ba64 c3              ret
--------------------------------------------------------------------------------------
0019ba61 d8485d          fmul    dword ptr [eax+5Dh]
0019ba64 c3              ret
--------------------------------------------------------------------------------------
0019ba60 f7d8            neg     eax
0019ba62 48              dec     eax
0019ba63 5d              pop     ebp
0019ba64 c3              ret
--------------------------------------------------------------------------------------
0019ba5f c0f7d8          sal     bh,0D8h
0019ba62 48              dec     eax
0019ba63 5d              pop     ebp
0019ba64 c3              ret
--------------------------------------------------------------------------------------
0019ba5e 1bc0            sbb     eax,eax
0019ba60 f7d8            neg     eax
0019ba62 48              dec     eax
0019ba63 5d              pop     ebp
0019ba64 c3              ret
--------------------------------------------------------------------------------------
0019ba5d 59              pop     ecx
0019ba5e 1bc0            sbb     eax,eax
0019ba60 f7d8            neg     eax
0019ba62 48              dec     eax
0019ba63 5d              pop     ebp
0019ba64 c3              ret
--------------------------------------------------------------------------------------
0019baaf 5d              pop     ebp
0019bab0 c20400          ret     4
--------------------------------------------------------------------------------------
0019baad 33c0            xor     eax,eax
0019baaf 5d              pop     ebp
0019bab0 c20400          ret     4
--------------------------------------------------------------------------------------
0019baab 1a00            sbb     al,byte ptr [eax]
0019baad 33c0            xor     eax,eax
0019baaf 5d              pop     ebp
0019bab0 c20400          ret     4
--------------------------------------------------------------------------------------
0019bacb 33c0            xor     eax,eax
0019bacd c3              ret
--------------------------------------------------------------------------------------
0019bac9 1a00            sbb     al,byte ptr [eax]
0019bacb 33c0            xor     eax,eax
0019bacd c3              ret
--------------------------------------------------------------------------------------
0019bac7 8403            test    byte ptr [ebx],al
0019bac9 1a00            sbb     al,byte ptr [eax]
0019bacb 33c0            xor     eax,eax
0019bacd c3              ret
--------------------------------------------------------------------------------------
0019bac6 1584031a00      adc     eax,offset notepad!_imp__SetUnhandledExceptionFilter (001a0384)
0019bacb 33c0            xor     eax,eax
0019bacd c3              ret
--------------------------------------------------------------------------------------
0019bb09 2303            and     eax,dword ptr [ebx]
0019bb0b c28945          ret     4589h
--------------------------------------------------------------------------------------
0019bb23 40              inc     eax
0019bb24 c3              ret
--------------------------------------------------------------------------------------
0019bb21 33c0            xor     eax,eax
0019bb23 40              inc     eax
0019bb24 c3              ret
--------------------------------------------------------------------------------------
0019bb39 0000            add     byte ptr [eax],al
0019bb3b c20400          ret     4
--------------------------------------------------------------------------------------
0019bb6d 5d              pop     ebp
0019bb6e c3              ret
--------------------------------------------------------------------------------------
0019bb6c 40              inc     eax
0019bb6d 5d              pop     ebp
0019bb6e c3              ret
--------------------------------------------------------------------------------------
0019bb6a 33c0            xor     eax,eax
0019bb6c 40              inc     eax
0019bb6d 5d              pop     ebp
0019bb6e c3              ret
--------------------------------------------------------------------------------------
0019bb69 0533c0405d      add     eax,5D40C033h
0019bb6e c3              ret
--------------------------------------------------------------------------------------
0019bb67 037505          add     esi,dword ptr [ebp+5]
0019bb6a 33c0            xor     eax,eax
0019bb6c 40              inc     eax
0019bb6d 5d              pop     ebp
0019bb6e c3              ret
--------------------------------------------------------------------------------------
0019bb72 5d              pop     ebp
0019bb73 c3              ret
--------------------------------------------------------------------------------------
0019bb6f 8b4508          mov     eax,dword ptr [ebp+8]
0019bb72 5d              pop     ebp
0019bb73 c3              ret
--------------------------------------------------------------------------------------
0019bb6e c3              ret
--------------------------------------------------------------------------------------
0019bb6d 5d              pop     ebp
0019bb6e c3              ret
--------------------------------------------------------------------------------------
0019bb6c 40              inc     eax
0019bb6d 5d              pop     ebp
0019bb6e c3              ret
--------------------------------------------------------------------------------------
0019bb80 33c0            xor     eax,eax
0019bb82 c3              ret
--------------------------------------------------------------------------------------
0019bbd3 5d              pop     ebp
0019bbd4 c3              ret
--------------------------------------------------------------------------------------
0019bbd2 5b              pop     ebx
0019bbd3 5d              pop     ebp
0019bbd4 c3              ret
--------------------------------------------------------------------------------------
0019bbd1 5e              pop     esi
0019bbd2 5b              pop     ebx
0019bbd3 5d              pop     ebp
0019bbd4 c3              ret
--------------------------------------------------------------------------------------
0019bbd0 5f              pop     edi
0019bbd1 5e              pop     esi
0019bbd2 5b              pop     ebx
0019bbd3 5d              pop     ebp
0019bbd4 c3              ret
--------------------------------------------------------------------------------------
0019bbcf c05f5e5b        rcr     byte ptr [edi+5Eh],5Bh
0019bbd3 5d              pop     ebp
0019bbd4 c3              ret
--------------------------------------------------------------------------------------
0019bbce 33c0            xor     eax,eax
0019bbd0 5f              pop     edi
0019bbd1 5e              pop     esi
0019bbd2 5b              pop     ebx
0019bbd3 5d              pop     ebp
0019bbd4 c3              ret
--------------------------------------------------------------------------------------
0019bc69 5d              pop     ebp
0019bc6a c3              ret
--------------------------------------------------------------------------------------
0019bc67 8be5            mov     esp,ebp
0019bc69 5d              pop     ebp
0019bc6a c3              ret
--------------------------------------------------------------------------------------
0019bc66 5b              pop     ebx
0019bc67 8be5            mov     esp,ebp
0019bc69 5d              pop     ebp
0019bc6a c3              ret
--------------------------------------------------------------------------------------
0019bc65 5e              pop     esi
0019bc66 5b              pop     ebx
0019bc67 8be5            mov     esp,ebp
0019bc69 5d              pop     ebp
0019bc6a c3              ret
--------------------------------------------------------------------------------------
0019bc64 5f              pop     edi
0019bc65 5e              pop     esi
0019bc66 5b              pop     ebx
0019bc67 8be5            mov     esp,ebp
0019bc69 5d              pop     ebp
0019bc6a c3              ret
--------------------------------------------------------------------------------------
0019bc63 59              pop     ecx
0019bc64 5f              pop     edi
0019bc65 5e              pop     esi
0019bc66 5b              pop     ebx
0019bc67 8be5            mov     esp,ebp
0019bc69 5d              pop     ebp
0019bc6a c3              ret
--------------------------------------------------------------------------------------
0019bc7b 8bc1            mov     eax,ecx
0019bc7d c3              ret
--------------------------------------------------------------------------------------
0019bc78 0f94c1          sete    cl
0019bc7b 8bc1            mov     eax,ecx
0019bc7d c3              ret
--------------------------------------------------------------------------------------
0019bc76 00c0            add     al,al
0019bc78 0f94c1          sete    cl
0019bc7b 8bc1            mov     eax,ecx
0019bc7d c3              ret
--------------------------------------------------------------------------------------
0019bc9a 5d              pop     ebp
0019bc9b c3              ret
--------------------------------------------------------------------------------------
0019bc98 8be5            mov     esp,ebp
0019bc9a 5d              pop     ebp
0019bc9b c3              ret
--------------------------------------------------------------------------------------
0019bc97 5b              pop     ebx
0019bc98 8be5            mov     esp,ebp
0019bc9a 5d              pop     ebp
0019bc9b c3              ret
--------------------------------------------------------------------------------------
0019bc96 5e              pop     esi
0019bc97 5b              pop     ebx
0019bc98 8be5            mov     esp,ebp
0019bc9a 5d              pop     ebp
0019bc9b c3              ret
--------------------------------------------------------------------------------------
0019bc95 5f              pop     edi
0019bc96 5e              pop     esi
0019bc97 5b              pop     ebx
0019bc98 8be5            mov     esp,ebp
0019bc9a 5d              pop     ebp
0019bc9b c3              ret
--------------------------------------------------------------------------------------
0019bc94 59              pop     ecx
0019bc95 5f              pop     edi
0019bc96 5e              pop     esi
0019bc97 5b              pop     ebx
0019bc98 8be5            mov     esp,ebp
0019bc9a 5d              pop     ebp
0019bc9b c3              ret
--------------------------------------------------------------------------------------
0019bcb4 5d              pop     ebp
0019bcb5 c3              ret
--------------------------------------------------------------------------------------
0019bcb2 33c0            xor     eax,eax
0019bcb4 5d              pop     ebp
0019bcb5 c3              ret
--------------------------------------------------------------------------------------
0019bcd1 5d              pop     ebp
0019bcd2 c3              ret
--------------------------------------------------------------------------------------
0019bcce 0f94c0          sete    al
0019bcd1 5d              pop     ebp
0019bcd2 c3              ret
--------------------------------------------------------------------------------------
0019bccb 395118          cmp     dword ptr [ecx+18h],edx
0019bcce 0f94c0          sete    al
0019bcd1 5d              pop     ebp
0019bcd2 c3              ret
--------------------------------------------------------------------------------------
0019bd73 5d              pop     ebp
0019bd74 c3              ret
--------------------------------------------------------------------------------------
0019bd71 8be5            mov     esp,ebp
0019bd73 5d              pop     ebp
0019bd74 c3              ret
--------------------------------------------------------------------------------------
0019bd70 5e              pop     esi
0019bd71 8be5            mov     esp,ebp
0019bd73 5d              pop     ebp
0019bd74 c3              ret
--------------------------------------------------------------------------------------
0019bd6f 5f              pop     edi
0019bd70 5e              pop     esi
0019bd71 8be5            mov     esp,ebp
0019bd73 5d              pop     ebp
0019bd74 c3              ret
--------------------------------------------------------------------------------------
0019bd6e 005f5e          add     byte ptr [edi+5Eh],bl
0019bd71 8be5            mov     esp,ebp
0019bd73 5d              pop     ebp
0019bd74 c3              ret
--------------------------------------------------------------------------------------
0019bd6d 1900            sbb     dword ptr [eax],eax
0019bd6f 5f              pop     edi
0019bd70 5e              pop     esi
0019bd71 8be5            mov     esp,ebp
0019bd73 5d              pop     ebp
0019bd74 c3              ret
--------------------------------------------------------------------------------------
0019bd86 59              pop     ecx
0019bd87 c3              ret
--------------------------------------------------------------------------------------
0019bd85 59              pop     ecx
0019bd86 59              pop     ecx
0019bd87 c3              ret
--------------------------------------------------------------------------------------
0019bd84 005959          add     byte ptr [ecx+59h],bl
0019bd87 c3              ret
--------------------------------------------------------------------------------------
0019bd83 1a00            sbb     al,byte ptr [eax]
0019bd85 59              pop     ecx
0019bd86 59              pop     ecx
0019bd87 c3              ret
--------------------------------------------------------------------------------------
0019bd82 041a            add     al,1Ah
0019bd84 005959          add     byte ptr [ecx+59h],bl
0019bd87 c3              ret
--------------------------------------------------------------------------------------
0019bd80 157c041a00      adc     eax,offset notepad!_imp___controlfp (001a047c)
0019bd85 59              pop     ecx
0019bd86 59              pop     ecx
0019bd87 c3              ret
--------------------------------------------------------------------------------------
0019bdd5 0000            add     byte ptr [eax],al
0019bdd7 c3              ret
--------------------------------------------------------------------------------------
0019bdd3 0000            add     byte ptr [eax],al
0019bdd5 0000            add     byte ptr [eax],al
0019bdd7 c3              ret
--------------------------------------------------------------------------------------
0019bdd2 a300000000      mov     dword ptr ds:[00000000h],eax
0019bdd7 c3              ret
--------------------------------------------------------------------------------------
0019bdd1 64a300000000    mov     dword ptr fs:[00000000h],eax
0019bdd7 c3              ret
--------------------------------------------------------------------------------------
0019be4e 0000            add     byte ptr [eax],al
0019be50 c3              ret
--------------------------------------------------------------------------------------
0019be4c 0000            add     byte ptr [eax],al
0019be4e 0000            add     byte ptr [eax],al
0019be50 c3              ret
--------------------------------------------------------------------------------------
0019be4b a300000000      mov     dword ptr ds:[00000000h],eax
0019be50 c3              ret
--------------------------------------------------------------------------------------
0019be4a 64a300000000    mov     dword ptr fs:[00000000h],eax
0019be50 c3              ret
--------------------------------------------------------------------------------------
0019be63 51              push    ecx
0019be64 c3              ret
--------------------------------------------------------------------------------------
0019be62 5d              pop     ebp
0019be63 51              push    ecx
0019be64 c3              ret
--------------------------------------------------------------------------------------
0019be60 8be5            mov     esp,ebp
0019be62 5d              pop     ebp
0019be63 51              push    ecx
0019be64 c3              ret
--------------------------------------------------------------------------------------
0019be5f 5b              pop     ebx
0019be60 8be5            mov     esp,ebp
0019be62 5d              pop     ebp
0019be63 51              push    ecx
0019be64 c3              ret
--------------------------------------------------------------------------------------
0019be5e 5e              pop     esi
0019be5f 5b              pop     ebx
0019be60 8be5            mov     esp,ebp
0019be62 5d              pop     ebp
0019be63 51              push    ecx
0019be64 c3              ret
--------------------------------------------------------------------------------------
0019be5d 5f              pop     edi
0019be5e 5e              pop     esi
0019be5f 5b              pop     ebx
0019be60 8be5            mov     esp,ebp
0019be62 5d              pop     ebp
0019be63 51              push    ecx
0019be64 c3              ret
--------------------------------------------------------------------------------------
0019be87 1900            sbb     dword ptr [eax],eax
0019be89 c3              ret
--------------------------------------------------------------------------------------
0019be84 b88abe1900      mov     eax,offset notepad!operator new+0x25 (0019be8a)
0019be89 c3              ret
--------------------------------------------------------------------------------------
0019be83 00b88abe1900    add     byte ptr notepad!operator new+0x25 (0019be8a)[eax],bh
0019be89 c3              ret
--------------------------------------------------------------------------------------
0019be90 0000            add     byte ptr [eax],al
0019be92 c3              ret
--------------------------------------------------------------------------------------
0019be8e 1a00            sbb     al,byte ptr [eax]
0019be90 0000            add     byte ptr [eax],al
0019be92 c3              ret
--------------------------------------------------------------------------------------
0019bebe 51              push    ecx
0019bebf c3              ret
--------------------------------------------------------------------------------------
0019bebd 5d              pop     ebp
0019bebe 51              push    ecx
0019bebf c3              ret
--------------------------------------------------------------------------------------
0019bebb 8be5            mov     esp,ebp
0019bebd 5d              pop     ebp
0019bebe 51              push    ecx
0019bebf c3              ret
--------------------------------------------------------------------------------------
0019beba 5b              pop     ebx
0019bebb 8be5            mov     esp,ebp
0019bebd 5d              pop     ebp
0019bebe 51              push    ecx
0019bebf c3              ret
--------------------------------------------------------------------------------------
0019beb9 5e              pop     esi
0019beba 5b              pop     ebx
0019bebb 8be5            mov     esp,ebp
0019bebd 5d              pop     ebp
0019bebe 51              push    ecx
0019bebf c3              ret
--------------------------------------------------------------------------------------
0019beb8 5f              pop     edi
0019beb9 5e              pop     esi
0019beba 5b              pop     ebx
0019bebb 8be5            mov     esp,ebp
0019bebd 5d              pop     ebp
0019bebe 51              push    ecx
0019bebf c3              ret
--------------------------------------------------------------------------------------
0019bef3 0000            add     byte ptr [eax],al
0019bef5 c3              ret
--------------------------------------------------------------------------------------
0019bef1 0000            add     byte ptr [eax],al
0019bef3 0000            add     byte ptr [eax],al
0019bef5 c3              ret
--------------------------------------------------------------------------------------
0019bef0 a300000000      mov     dword ptr ds:[00000000h],eax
0019bef5 c3              ret
--------------------------------------------------------------------------------------
0019beef 64a300000000    mov     dword ptr fs:[00000000h],eax
0019bef5 c3              ret
--------------------------------------------------------------------------------------
0019bf1d 5d              pop     ebp
0019bf1e c3              ret
--------------------------------------------------------------------------------------
0019bf1c 5e              pop     esi
0019bf1d 5d              pop     ebp
0019bf1e c3              ret
--------------------------------------------------------------------------------------
0019bf1a 8bc6            mov     eax,esi
0019bf1c 5e              pop     esi
0019bf1d 5d              pop     ebp
0019bf1e c3              ret
--------------------------------------------------------------------------------------
0019bf4f 0424            add     al,24h
0019bf51 c3              ret
--------------------------------------------------------------------------------------
0019bf4e 890424          mov     dword ptr [esp],eax
0019bf51 c3              ret
--------------------------------------------------------------------------------------
0019bf4c 8b00            mov     eax,dword ptr [eax]
0019bf4e 890424          mov     dword ptr [esp],eax
0019bf51 c3              ret
--------------------------------------------------------------------------------------
0019bf4b 94              xchg    eax,esp
0019bf4c 8b00            mov     eax,dword ptr [eax]
0019bf4e 890424          mov     dword ptr [esp],eax
0019bf51 c3              ret
--------------------------------------------------------------------------------------
0019bf4a 59              pop     ecx
0019bf4b 94              xchg    eax,esp
0019bf4c 8b00            mov     eax,dword ptr [eax]
0019bf4e 890424          mov     dword ptr [esp],eax
0019bf51 c3              ret
--------------------------------------------------------------------------------------
0019bfe5 5d              pop     ebp
0019bfe6 c3              ret
--------------------------------------------------------------------------------------
0019bfe3 8be5            mov     esp,ebp
0019bfe5 5d              pop     ebp
0019bfe6 c3              ret
--------------------------------------------------------------------------------------
0019bfe2 5b              pop     ebx
0019bfe3 8be5            mov     esp,ebp
0019bfe5 5d              pop     ebp
0019bfe6 c3              ret
--------------------------------------------------------------------------------------
0019bfe1 5e              pop     esi
0019bfe2 5b              pop     ebx
0019bfe3 8be5            mov     esp,ebp
0019bfe5 5d              pop     ebp
0019bfe6 c3              ret
--------------------------------------------------------------------------------------
0019bfe0 5f              pop     edi
0019bfe1 5e              pop     esi
0019bfe2 5b              pop     ebx
0019bfe3 8be5            mov     esp,ebp
0019bfe5 5d              pop     ebp
0019bfe6 c3              ret
--------------------------------------------------------------------------------------
0019bfdf dc5f5e          fcomp   qword ptr [edi+5Eh]
0019bfe2 5b              pop     ebx
0019bfe3 8be5            mov     esp,ebp
0019bfe5 5d              pop     ebp
0019bfe6 c3              ret
